	.section	__TEXT,__text,regular,pure_instructions
	.section	__TEXT,__const
	.align	4
LCPI0_0:
	.long	1127219200              ## 0x43300000
	.long	1160773632              ## 0x45300000
	.long	0                       ## 0x0
	.long	0                       ## 0x0
LCPI0_1:
	.quad	4841369599423283200     ## double 4.503600e+15
	.quad	4985484787499139072     ## double 1.934281e+25
	.section	__TEXT,__literal8,8byte_literals
	.align	3
LCPI0_2:
	.quad	1602224128              ## 0x5f800000
	.section	__TEXT,__text,regular,pure_instructions
	.globl	_main
	.align	4, 0x90
_main:                                  ## @main
Lfunc_begin0:
	.loc	1 11 0                  ## main.cpp:11:0
	.cfi_startproc
	.cfi_personality 155, ___gxx_personality_v0
Leh_func_begin0:
	.cfi_lsda 16, Lexception0
## BB#0:
	pushq	%rbp
Ltmp164:
	.cfi_def_cfa_offset 16
Ltmp165:
	.cfi_offset %rbp, -16
	movq	%rsp, %rbp
Ltmp166:
	.cfi_def_cfa_register %rbp
	subq	$3088, %rsp             ## imm = 0xC10
	leaq	-1976(%rbp), %rdi
	movl	$0, -1892(%rbp)
Ltmp167:
	##DEBUG_VALUE: main:mesTimeOverhead <- RDI
	.loc	1 16 0 prologue_end     ## main.cpp:16:0
	callq	__Z20measure_timeOverheadv
	xorps	%xmm0, %xmm0
	leaq	-1784(%rbp), %rdi
Ltmp168:
	leaq	-1976(%rbp), %rax
	leaq	-1856(%rbp), %rcx
	movq	%rax, -1888(%rbp)
	movq	-1888(%rbp), %rdx
	.loc	20 1417 0               ## /Applications/Xcode.app/Contents/Developer/Toolchains/XcodeDefault.xctoolchain/usr/bin/../include/c++/v1/vector:1417:0
Ltmp169:
	movq	(%rdx), %rsi
	movq	%rdx, -1864(%rbp)
	movq	%rsi, -1872(%rbp)
	.loc	20 1396 0               ## /Applications/Xcode.app/Contents/Developer/Toolchains/XcodeDefault.xctoolchain/usr/bin/../include/c++/v1/vector:1396:0
Ltmp170:
	movq	-1872(%rbp), %rdx
	movq	%rcx, -1840(%rbp)
	movq	%rdx, -1848(%rbp)
	movq	-1840(%rbp), %rcx
	.loc	15 1220 0               ## /Applications/Xcode.app/Contents/Developer/Toolchains/XcodeDefault.xctoolchain/usr/bin/../include/c++/v1/iterator:1220:0
Ltmp171:
	movq	-1848(%rbp), %rdx
	movq	%rcx, -1824(%rbp)
	movq	%rdx, -1832(%rbp)
	movq	-1824(%rbp), %rcx
	.loc	15 1220 0               ## /Applications/Xcode.app/Contents/Developer/Toolchains/XcodeDefault.xctoolchain/usr/bin/../include/c++/v1/iterator:1220:0
Ltmp172:
	movq	-1832(%rbp), %rdx
	movq	%rdx, (%rcx)
Ltmp173:
	.loc	20 1396 0               ## /Applications/Xcode.app/Contents/Developer/Toolchains/XcodeDefault.xctoolchain/usr/bin/../include/c++/v1/vector:1396:0
	movq	-1856(%rbp), %rcx
Ltmp174:
	.loc	20 1417 0               ## /Applications/Xcode.app/Contents/Developer/Toolchains/XcodeDefault.xctoolchain/usr/bin/../include/c++/v1/vector:1417:0
	movq	%rcx, -1880(%rbp)
	movq	-1880(%rbp), %rcx
Ltmp175:
	.loc	1 17 0                  ## main.cpp:17:0
	movq	%rcx, -1984(%rbp)
	movq	%rax, -1816(%rbp)
	movq	-1816(%rbp), %rax
	.loc	20 1433 0               ## /Applications/Xcode.app/Contents/Developer/Toolchains/XcodeDefault.xctoolchain/usr/bin/../include/c++/v1/vector:1433:0
Ltmp176:
	movq	8(%rax), %rcx
	movq	%rax, -1792(%rbp)
	movq	%rcx, -1800(%rbp)
	.loc	20 1396 0               ## /Applications/Xcode.app/Contents/Developer/Toolchains/XcodeDefault.xctoolchain/usr/bin/../include/c++/v1/vector:1396:0
Ltmp177:
	movq	-1800(%rbp), %rax
	movq	%rdi, -1768(%rbp)
	movq	%rax, -1776(%rbp)
	movq	-1768(%rbp), %rax
	.loc	15 1220 0               ## /Applications/Xcode.app/Contents/Developer/Toolchains/XcodeDefault.xctoolchain/usr/bin/../include/c++/v1/iterator:1220:0
Ltmp178:
	movq	-1776(%rbp), %rcx
	movq	%rax, -1752(%rbp)
	movq	%rcx, -1760(%rbp)
	movq	-1752(%rbp), %rax
	.loc	15 1220 0               ## /Applications/Xcode.app/Contents/Developer/Toolchains/XcodeDefault.xctoolchain/usr/bin/../include/c++/v1/iterator:1220:0
Ltmp179:
	movq	-1760(%rbp), %rcx
	movq	%rcx, (%rax)
Ltmp180:
	.loc	20 1396 0               ## /Applications/Xcode.app/Contents/Developer/Toolchains/XcodeDefault.xctoolchain/usr/bin/../include/c++/v1/vector:1396:0
	movq	-1784(%rbp), %rax
Ltmp181:
	.loc	20 1433 0               ## /Applications/Xcode.app/Contents/Developer/Toolchains/XcodeDefault.xctoolchain/usr/bin/../include/c++/v1/vector:1433:0
	movq	%rax, -1808(%rbp)
	movq	-1808(%rbp), %rax
Ltmp182:
	.loc	1 17 0                  ## main.cpp:17:0
	movq	%rax, -1992(%rbp)
	.loc	1 17 9                  ## main.cpp:17:9
	movq	-1984(%rbp), %rax
	movq	-1992(%rbp), %rcx
	movq	%rax, -1728(%rbp)
	movq	%rcx, -1736(%rbp)
	movsd	%xmm0, -1744(%rbp)
LBB0_1:                                 ## =>This Inner Loop Header: Depth=1
	leaq	-1736(%rbp), %rax
	leaq	-1728(%rbp), %rcx
	movq	%rcx, -1712(%rbp)
	movq	%rax, -1720(%rbp)
	.loc	15 1339 14              ## /Applications/Xcode.app/Contents/Developer/Toolchains/XcodeDefault.xctoolchain/usr/bin/../include/c++/v1/iterator:1339:14
Ltmp183:
	movq	-1712(%rbp), %rax
	movq	-1720(%rbp), %rcx
	movq	%rax, -1696(%rbp)
	movq	%rcx, -1704(%rbp)
	.loc	15 1287 0               ## /Applications/Xcode.app/Contents/Developer/Toolchains/XcodeDefault.xctoolchain/usr/bin/../include/c++/v1/iterator:1287:0
Ltmp184:
	movq	-1696(%rbp), %rax
	movq	%rax, -1688(%rbp)
	movq	-1688(%rbp), %rax
	.loc	15 1211 0               ## /Applications/Xcode.app/Contents/Developer/Toolchains/XcodeDefault.xctoolchain/usr/bin/../include/c++/v1/iterator:1211:0
Ltmp185:
	movq	(%rax), %rax
Ltmp186:
	.loc	15 1287 0               ## /Applications/Xcode.app/Contents/Developer/Toolchains/XcodeDefault.xctoolchain/usr/bin/../include/c++/v1/iterator:1287:0
	movq	-1704(%rbp), %rcx
	movq	%rcx, -1680(%rbp)
	movq	-1680(%rbp), %rcx
	cmpq	(%rcx), %rax
	sete	%dl
Ltmp187:
	.loc	15 1339 14              ## /Applications/Xcode.app/Contents/Developer/Toolchains/XcodeDefault.xctoolchain/usr/bin/../include/c++/v1/iterator:1339:14
	xorb	$1, %dl
Ltmp188:
	.loc	21 74 12                ## /Applications/Xcode.app/Contents/Developer/Toolchains/XcodeDefault.xctoolchain/usr/bin/../include/c++/v1/numeric:74:12
	testb	$1, %dl
	jne	LBB0_2
	jmp	LBB0_3
LBB0_2:                                 ##   in Loop: Header=BB0_1 Depth=1
	leaq	-1728(%rbp), %rax
	.loc	21 75 0                 ## /Applications/Xcode.app/Contents/Developer/Toolchains/XcodeDefault.xctoolchain/usr/bin/../include/c++/v1/numeric:75:0
	fldl	-1744(%rbp)
	leaq	-1728(%rbp), %rcx
	movq	%rcx, -1664(%rbp)
	.loc	15 1155 0               ## /Applications/Xcode.app/Contents/Developer/Toolchains/XcodeDefault.xctoolchain/usr/bin/../include/c++/v1/iterator:1155:0
Ltmp189:
	movq	-1728(%rbp), %rcx
Ltmp190:
	.loc	21 75 0                 ## /Applications/Xcode.app/Contents/Developer/Toolchains/XcodeDefault.xctoolchain/usr/bin/../include/c++/v1/numeric:75:0
	fldt	(%rcx)
	faddp	%st(1)
	fstpl	-2384(%rbp)
	movsd	-2384(%rbp), %xmm0
	movsd	%xmm0, -1744(%rbp)
	movq	%rax, -1672(%rbp)
	movq	-1672(%rbp), %rax
	.loc	15 1171 0               ## /Applications/Xcode.app/Contents/Developer/Toolchains/XcodeDefault.xctoolchain/usr/bin/../include/c++/v1/iterator:1171:0
Ltmp191:
	movq	(%rax), %rcx
	addq	$16, %rcx
	movq	%rcx, (%rax)
Ltmp192:
	.loc	21 74 0                 ## /Applications/Xcode.app/Contents/Developer/Toolchains/XcodeDefault.xctoolchain/usr/bin/../include/c++/v1/numeric:74:0
	jmp	LBB0_1
LBB0_3:                                 ## %_ZNSt3__110accumulateINS_11__wrap_iterIPeEEdEET0_T_S5_S4_.exit
	.loc	21 76 0                 ## /Applications/Xcode.app/Contents/Developer/Toolchains/XcodeDefault.xctoolchain/usr/bin/../include/c++/v1/numeric:76:0
	movsd	-1744(%rbp), %xmm0
	movsd	%xmm0, -2392(%rbp)      ## 8-byte Spill
Ltmp193:
## BB#4:
	xorps	%xmm0, %xmm0
	leaq	-1472(%rbp), %rax
	leaq	-1976(%rbp), %rcx
	leaq	-1544(%rbp), %rdx
	leaq	-1616(%rbp), %rsi
	leaq	-1976(%rbp), %rdi
	movq	%rdi, -1656(%rbp)
	.loc	20 656 0                ## /Applications/Xcode.app/Contents/Developer/Toolchains/XcodeDefault.xctoolchain/usr/bin/../include/c++/v1/vector:656:0
Ltmp194:
	movq	-1976(%rbp), %rdi
	movq	-1968(%rbp), %r8
	subq	%rdi, %r8
	sarq	$4, %r8
Ltmp195:
	.loc	1 18 0                  ## main.cpp:18:0
	movd	%r8, %xmm1
	movaps	LCPI0_0(%rip), %xmm2
	punpckldq	%xmm2, %xmm1    ## xmm1 = xmm1[0],xmm2[0],xmm1[1],xmm2[1]
	movapd	LCPI0_1(%rip), %xmm2
	subpd	%xmm2, %xmm1
	haddpd	%xmm1, %xmm1
	movsd	-2392(%rbp), %xmm2      ## 8-byte Reload
	divsd	%xmm1, %xmm2
	movsd	%xmm2, -2352(%rbp)
	fldl	-2352(%rbp)
	fstpt	-1920(%rbp)
	movq	%rcx, -1648(%rbp)
	movq	-1648(%rbp), %rdi
	.loc	20 1417 0               ## /Applications/Xcode.app/Contents/Developer/Toolchains/XcodeDefault.xctoolchain/usr/bin/../include/c++/v1/vector:1417:0
Ltmp196:
	movq	(%rdi), %r8
	movq	%rdi, -1624(%rbp)
	movq	%r8, -1632(%rbp)
	.loc	20 1396 0               ## /Applications/Xcode.app/Contents/Developer/Toolchains/XcodeDefault.xctoolchain/usr/bin/../include/c++/v1/vector:1396:0
Ltmp197:
	movq	-1632(%rbp), %rdi
	movq	%rsi, -1600(%rbp)
	movq	%rdi, -1608(%rbp)
	movq	-1600(%rbp), %rsi
	.loc	15 1220 0               ## /Applications/Xcode.app/Contents/Developer/Toolchains/XcodeDefault.xctoolchain/usr/bin/../include/c++/v1/iterator:1220:0
Ltmp198:
	movq	-1608(%rbp), %rdi
	movq	%rsi, -1584(%rbp)
	movq	%rdi, -1592(%rbp)
	movq	-1584(%rbp), %rsi
	.loc	15 1220 0               ## /Applications/Xcode.app/Contents/Developer/Toolchains/XcodeDefault.xctoolchain/usr/bin/../include/c++/v1/iterator:1220:0
Ltmp199:
	movq	-1592(%rbp), %rdi
	movq	%rdi, (%rsi)
Ltmp200:
	.loc	20 1396 0               ## /Applications/Xcode.app/Contents/Developer/Toolchains/XcodeDefault.xctoolchain/usr/bin/../include/c++/v1/vector:1396:0
	movq	-1616(%rbp), %rsi
Ltmp201:
	.loc	20 1417 0               ## /Applications/Xcode.app/Contents/Developer/Toolchains/XcodeDefault.xctoolchain/usr/bin/../include/c++/v1/vector:1417:0
	movq	%rsi, -1640(%rbp)
	movq	-1640(%rbp), %rsi
Ltmp202:
	.loc	1 19 0                  ## main.cpp:19:0
	movq	%rsi, -2016(%rbp)
	movq	%rcx, -1576(%rbp)
	movq	-1576(%rbp), %rsi
	.loc	20 1433 0               ## /Applications/Xcode.app/Contents/Developer/Toolchains/XcodeDefault.xctoolchain/usr/bin/../include/c++/v1/vector:1433:0
Ltmp203:
	movq	8(%rsi), %rdi
	movq	%rsi, -1552(%rbp)
	movq	%rdi, -1560(%rbp)
	.loc	20 1396 0               ## /Applications/Xcode.app/Contents/Developer/Toolchains/XcodeDefault.xctoolchain/usr/bin/../include/c++/v1/vector:1396:0
Ltmp204:
	movq	-1560(%rbp), %rsi
	movq	%rdx, -1528(%rbp)
	movq	%rsi, -1536(%rbp)
	movq	-1528(%rbp), %rdx
	.loc	15 1220 0               ## /Applications/Xcode.app/Contents/Developer/Toolchains/XcodeDefault.xctoolchain/usr/bin/../include/c++/v1/iterator:1220:0
Ltmp205:
	movq	-1536(%rbp), %rsi
	movq	%rdx, -1512(%rbp)
	movq	%rsi, -1520(%rbp)
	movq	-1512(%rbp), %rdx
	.loc	15 1220 0               ## /Applications/Xcode.app/Contents/Developer/Toolchains/XcodeDefault.xctoolchain/usr/bin/../include/c++/v1/iterator:1220:0
Ltmp206:
	movq	-1520(%rbp), %rsi
	movq	%rsi, (%rdx)
Ltmp207:
	.loc	20 1396 0               ## /Applications/Xcode.app/Contents/Developer/Toolchains/XcodeDefault.xctoolchain/usr/bin/../include/c++/v1/vector:1396:0
	movq	-1544(%rbp), %rdx
Ltmp208:
	.loc	20 1433 0               ## /Applications/Xcode.app/Contents/Developer/Toolchains/XcodeDefault.xctoolchain/usr/bin/../include/c++/v1/vector:1433:0
	movq	%rdx, -1568(%rbp)
	movq	-1568(%rbp), %rdx
Ltmp209:
	.loc	1 19 0                  ## main.cpp:19:0
	movq	%rdx, -2024(%rbp)
	movq	%rcx, -1504(%rbp)
	movq	-1504(%rbp), %rcx
	.loc	20 1417 0               ## /Applications/Xcode.app/Contents/Developer/Toolchains/XcodeDefault.xctoolchain/usr/bin/../include/c++/v1/vector:1417:0
Ltmp210:
	movq	(%rcx), %rdx
	movq	%rcx, -1480(%rbp)
	movq	%rdx, -1488(%rbp)
	.loc	20 1396 0               ## /Applications/Xcode.app/Contents/Developer/Toolchains/XcodeDefault.xctoolchain/usr/bin/../include/c++/v1/vector:1396:0
Ltmp211:
	movq	-1488(%rbp), %rcx
	movq	%rax, -1456(%rbp)
	movq	%rcx, -1464(%rbp)
	movq	-1456(%rbp), %rax
	.loc	15 1220 0               ## /Applications/Xcode.app/Contents/Developer/Toolchains/XcodeDefault.xctoolchain/usr/bin/../include/c++/v1/iterator:1220:0
Ltmp212:
	movq	-1464(%rbp), %rcx
	movq	%rax, -1440(%rbp)
	movq	%rcx, -1448(%rbp)
	movq	-1440(%rbp), %rax
	.loc	15 1220 0               ## /Applications/Xcode.app/Contents/Developer/Toolchains/XcodeDefault.xctoolchain/usr/bin/../include/c++/v1/iterator:1220:0
Ltmp213:
	movq	-1448(%rbp), %rcx
	movq	%rcx, (%rax)
Ltmp214:
	.loc	20 1396 0               ## /Applications/Xcode.app/Contents/Developer/Toolchains/XcodeDefault.xctoolchain/usr/bin/../include/c++/v1/vector:1396:0
	movq	-1472(%rbp), %rax
Ltmp215:
	.loc	20 1417 0               ## /Applications/Xcode.app/Contents/Developer/Toolchains/XcodeDefault.xctoolchain/usr/bin/../include/c++/v1/vector:1417:0
	movq	%rax, -1496(%rbp)
	movq	-1496(%rbp), %rax
Ltmp216:
	.loc	1 20 0                  ## main.cpp:20:0
	movq	%rax, -2032(%rbp)
	.loc	1 19 11                 ## main.cpp:19:11
	movq	-2016(%rbp), %rax
	movq	-2024(%rbp), %rcx
	movq	-2032(%rbp), %rdx
	movq	%rax, -1408(%rbp)
	movq	%rcx, -1416(%rbp)
	movq	%rdx, -1424(%rbp)
	movsd	%xmm0, -1432(%rbp)
LBB0_5:                                 ## =>This Inner Loop Header: Depth=1
	leaq	-1416(%rbp), %rax
	leaq	-1408(%rbp), %rcx
	movq	%rcx, -1392(%rbp)
	movq	%rax, -1400(%rbp)
	.loc	15 1339 14              ## /Applications/Xcode.app/Contents/Developer/Toolchains/XcodeDefault.xctoolchain/usr/bin/../include/c++/v1/iterator:1339:14
Ltmp217:
	movq	-1392(%rbp), %rax
	movq	-1400(%rbp), %rcx
	movq	%rax, -1376(%rbp)
	movq	%rcx, -1384(%rbp)
	.loc	15 1287 0               ## /Applications/Xcode.app/Contents/Developer/Toolchains/XcodeDefault.xctoolchain/usr/bin/../include/c++/v1/iterator:1287:0
Ltmp218:
	movq	-1376(%rbp), %rax
	movq	%rax, -1368(%rbp)
	movq	-1368(%rbp), %rax
	.loc	15 1211 0               ## /Applications/Xcode.app/Contents/Developer/Toolchains/XcodeDefault.xctoolchain/usr/bin/../include/c++/v1/iterator:1211:0
Ltmp219:
	movq	(%rax), %rax
Ltmp220:
	.loc	15 1287 0               ## /Applications/Xcode.app/Contents/Developer/Toolchains/XcodeDefault.xctoolchain/usr/bin/../include/c++/v1/iterator:1287:0
	movq	-1384(%rbp), %rcx
	movq	%rcx, -1360(%rbp)
	movq	-1360(%rbp), %rcx
	cmpq	(%rcx), %rax
	sete	%dl
Ltmp221:
	.loc	15 1339 14              ## /Applications/Xcode.app/Contents/Developer/Toolchains/XcodeDefault.xctoolchain/usr/bin/../include/c++/v1/iterator:1339:14
	xorb	$1, %dl
Ltmp222:
	.loc	21 94 12                ## /Applications/Xcode.app/Contents/Developer/Toolchains/XcodeDefault.xctoolchain/usr/bin/../include/c++/v1/numeric:94:12
	testb	$1, %dl
	jne	LBB0_6
	jmp	LBB0_7
LBB0_6:                                 ##   in Loop: Header=BB0_5 Depth=1
	leaq	-1424(%rbp), %rax
	leaq	-1408(%rbp), %rcx
	.loc	21 95 0                 ## /Applications/Xcode.app/Contents/Developer/Toolchains/XcodeDefault.xctoolchain/usr/bin/../include/c++/v1/numeric:95:0
	fldl	-1432(%rbp)
	leaq	-1408(%rbp), %rdx
	movq	%rdx, -1328(%rbp)
	.loc	15 1155 0               ## /Applications/Xcode.app/Contents/Developer/Toolchains/XcodeDefault.xctoolchain/usr/bin/../include/c++/v1/iterator:1155:0
Ltmp223:
	movq	-1408(%rbp), %rdx
Ltmp224:
	.loc	21 95 0                 ## /Applications/Xcode.app/Contents/Developer/Toolchains/XcodeDefault.xctoolchain/usr/bin/../include/c++/v1/numeric:95:0
	fldt	(%rdx)
	leaq	-1424(%rbp), %rdx
	movq	%rdx, -1336(%rbp)
	.loc	15 1155 0               ## /Applications/Xcode.app/Contents/Developer/Toolchains/XcodeDefault.xctoolchain/usr/bin/../include/c++/v1/iterator:1155:0
Ltmp225:
	movq	-1424(%rbp), %rdx
Ltmp226:
	.loc	21 95 0                 ## /Applications/Xcode.app/Contents/Developer/Toolchains/XcodeDefault.xctoolchain/usr/bin/../include/c++/v1/numeric:95:0
	fldt	(%rdx)
	fmulp	%st(1)
	faddp	%st(1)
	fstpl	-2376(%rbp)
	movsd	-2376(%rbp), %xmm0
	movsd	%xmm0, -1432(%rbp)
	movq	%rcx, -1344(%rbp)
	movq	-1344(%rbp), %rcx
	.loc	15 1171 0               ## /Applications/Xcode.app/Contents/Developer/Toolchains/XcodeDefault.xctoolchain/usr/bin/../include/c++/v1/iterator:1171:0
Ltmp227:
	movq	(%rcx), %rdx
	addq	$16, %rdx
	movq	%rdx, (%rcx)
	movq	%rax, -1352(%rbp)
	movq	-1352(%rbp), %rax
	movq	(%rax), %rcx
	addq	$16, %rcx
	movq	%rcx, (%rax)
Ltmp228:
	.loc	21 94 0                 ## /Applications/Xcode.app/Contents/Developer/Toolchains/XcodeDefault.xctoolchain/usr/bin/../include/c++/v1/numeric:94:0
	jmp	LBB0_5
LBB0_7:                                 ## %_ZNSt3__113inner_productINS_11__wrap_iterIPeEES3_dEET1_T_S5_T0_S4_.exit
	.loc	21 96 0                 ## /Applications/Xcode.app/Contents/Developer/Toolchains/XcodeDefault.xctoolchain/usr/bin/../include/c++/v1/numeric:96:0
	movsd	-1432(%rbp), %xmm0
	movsd	%xmm0, -2400(%rbp)      ## 8-byte Spill
Ltmp229:
## BB#8:
	.loc	1 19 11                 ## main.cpp:19:11
	movsd	-2400(%rbp), %xmm0      ## 8-byte Reload
	movsd	%xmm0, -2368(%rbp)
	fldl	-2368(%rbp)
	fld	%st(0)
	fstpt	-1952(%rbp)
	leaq	-1976(%rbp), %rax
	movq	%rax, -1320(%rbp)
	.loc	20 656 0                ## /Applications/Xcode.app/Contents/Developer/Toolchains/XcodeDefault.xctoolchain/usr/bin/../include/c++/v1/vector:656:0
Ltmp230:
	movq	-1976(%rbp), %rax
	movq	-1968(%rbp), %rcx
	subq	%rax, %rcx
	sarq	$4, %rcx
Ltmp231:
	.loc	1 21 0                  ## main.cpp:21:0
	movq	%rcx, -2360(%rbp)
	testq	%rcx, %rcx
	setns	%dl
	movzbl	%dl, %esi
	movl	%esi, %eax
	leaq	LCPI0_2(%rip), %rcx
	flds	(%rcx,%rax,4)
	fildll	-2360(%rbp)
	faddp	%st(1)
	fdivrp	%st(1)
	fldt	-1920(%rbp)
	fmul	%st(0), %st(0)
	fsubrp	%st(1)
	fld	%st(0)
	fstpt	-1312(%rbp)
	.loc	22 1008 0               ## /Applications/Xcode.app/Contents/Developer/Toolchains/XcodeDefault.xctoolchain/usr/bin/../include/c++/v1/cmath:1008:0
Ltmp232:
	fsqrt
Ltmp233:
	.loc	1 21 11                 ## main.cpp:21:11
	fstpt	-1936(%rbp)
	.loc	1 22 0                  ## main.cpp:22:0
Ltmp0:
	movq	__ZNSt3__14coutE@GOTPCREL(%rip), %rdi
	leaq	L_.str(%rip), %rsi
	callq	__ZNSt3__1lsINS_11char_traitsIcEEEERNS_13basic_ostreamIcT_EES6_PKc
Ltmp1:
	movq	%rax, -2408(%rbp)       ## 8-byte Spill
	jmp	LBB0_9
LBB0_9:
Ltmp2:
	movl	$250000, %esi           ## imm = 0x3D090
	movq	-2408(%rbp), %rdi       ## 8-byte Reload
	callq	__ZNSt3__113basic_ostreamIcNS_11char_traitsIcEEElsEi
Ltmp3:
	movq	%rax, -2416(%rbp)       ## 8-byte Spill
	jmp	LBB0_10
LBB0_10:
Ltmp4:
	leaq	L_.str1(%rip), %rsi
	movq	-2416(%rbp), %rdi       ## 8-byte Reload
	callq	__ZNSt3__1lsINS_11char_traitsIcEEEERNS_13basic_ostreamIcT_EES6_PKc
Ltmp5:
	movq	%rax, -2424(%rbp)       ## 8-byte Spill
	jmp	LBB0_11
LBB0_11:
	fldt	-1920(%rbp)
Ltmp6:
	movq	%rsp, %rax
	fstpt	(%rax)
	movq	-2424(%rbp), %rdi       ## 8-byte Reload
	callq	__ZNSt3__113basic_ostreamIcNS_11char_traitsIcEEElsEe
Ltmp7:
	movq	%rax, -2432(%rbp)       ## 8-byte Spill
	jmp	LBB0_12
LBB0_12:
Ltmp8:
	leaq	L_.str2(%rip), %rsi
	movq	-2432(%rbp), %rdi       ## 8-byte Reload
	callq	__ZNSt3__1lsINS_11char_traitsIcEEEERNS_13basic_ostreamIcT_EES6_PKc
Ltmp9:
	movq	%rax, -2440(%rbp)       ## 8-byte Spill
	jmp	LBB0_13
LBB0_13:
	movq	-2440(%rbp), %rax       ## 8-byte Reload
	movq	%rax, -1280(%rbp)
	leaq	__ZNSt3__14endlIcNS_11char_traitsIcEEEERNS_13basic_ostreamIT_T0_EES7_(%rip), %rcx
	movq	%rcx, -1288(%rbp)
	movq	-1280(%rbp), %rdi
Ltmp10:
	callq	*%rcx
Ltmp11:
	movq	%rax, -2448(%rbp)       ## 8-byte Spill
	jmp	LBB0_14
LBB0_14:                                ## %_ZNSt3__113basic_ostreamIcNS_11char_traitsIcEEElsEPFRS3_S4_E.exit
	.loc	13 310 0                ## /Applications/Xcode.app/Contents/Developer/Toolchains/XcodeDefault.xctoolchain/usr/bin/../include/c++/v1/ostream:310:0
Ltmp234:
	jmp	LBB0_15
Ltmp235:
LBB0_15:
	.loc	1 23 0                  ## main.cpp:23:0
Ltmp12:
	movq	__ZNSt3__14coutE@GOTPCREL(%rip), %rdi
	leaq	L_.str3(%rip), %rsi
	callq	__ZNSt3__1lsINS_11char_traitsIcEEEERNS_13basic_ostreamIcT_EES6_PKc
Ltmp13:
	movq	%rax, -2456(%rbp)       ## 8-byte Spill
	jmp	LBB0_16
LBB0_16:
Ltmp14:
	movl	$250000, %esi           ## imm = 0x3D090
	movq	-2456(%rbp), %rdi       ## 8-byte Reload
	callq	__ZNSt3__113basic_ostreamIcNS_11char_traitsIcEEElsEi
Ltmp15:
	movq	%rax, -2464(%rbp)       ## 8-byte Spill
	jmp	LBB0_17
LBB0_17:
Ltmp16:
	leaq	L_.str1(%rip), %rsi
	movq	-2464(%rbp), %rdi       ## 8-byte Reload
	callq	__ZNSt3__1lsINS_11char_traitsIcEEEERNS_13basic_ostreamIcT_EES6_PKc
Ltmp17:
	movq	%rax, -2472(%rbp)       ## 8-byte Spill
	jmp	LBB0_18
LBB0_18:
	fldt	-1936(%rbp)
Ltmp18:
	movq	%rsp, %rax
	fstpt	(%rax)
	movq	-2472(%rbp), %rdi       ## 8-byte Reload
	callq	__ZNSt3__113basic_ostreamIcNS_11char_traitsIcEEElsEe
Ltmp19:
	movq	%rax, -2480(%rbp)       ## 8-byte Spill
	jmp	LBB0_19
LBB0_19:
Ltmp20:
	leaq	L_.str2(%rip), %rsi
	movq	-2480(%rbp), %rdi       ## 8-byte Reload
	callq	__ZNSt3__1lsINS_11char_traitsIcEEEERNS_13basic_ostreamIcT_EES6_PKc
Ltmp21:
	movq	%rax, -2488(%rbp)       ## 8-byte Spill
	jmp	LBB0_20
LBB0_20:
	movq	-2488(%rbp), %rax       ## 8-byte Reload
	movq	%rax, -1264(%rbp)
	leaq	__ZNSt3__14endlIcNS_11char_traitsIcEEEERNS_13basic_ostreamIT_T0_EES7_(%rip), %rcx
	movq	%rcx, -1272(%rbp)
	movq	-1264(%rbp), %rdi
Ltmp22:
	callq	*%rcx
Ltmp23:
	movq	%rax, -2496(%rbp)       ## 8-byte Spill
	jmp	LBB0_21
LBB0_21:                                ## %_ZNSt3__113basic_ostreamIcNS_11char_traitsIcEEElsEPFRS3_S4_E.exit1
	.loc	13 310 0                ## /Applications/Xcode.app/Contents/Developer/Toolchains/XcodeDefault.xctoolchain/usr/bin/../include/c++/v1/ostream:310:0
Ltmp236:
	jmp	LBB0_22
Ltmp237:
LBB0_22:
	##DEBUG_VALUE: main:mesLoopOverhead <- [RBP+-2048]
	.loc	1 28 0                  ## main.cpp:28:0
Ltmp24:
	movl	$250000, %edi           ## imm = 0x3D090
	callq	__Z20measure_loopOverheadj
Ltmp25:
	fstpt	-2508(%rbp)             ## 10-byte Folded Spill
	jmp	LBB0_23
Ltmp238:
LBB0_23:
	fldt	-2508(%rbp)             ## 10-byte Folded Reload
	fstpt	-2048(%rbp)
	.loc	1 29 0                  ## main.cpp:29:0
Ltmp26:
	movq	__ZNSt3__14coutE@GOTPCREL(%rip), %rdi
	leaq	L_.str4(%rip), %rsi
	callq	__ZNSt3__1lsINS_11char_traitsIcEEEERNS_13basic_ostreamIcT_EES6_PKc
Ltmp27:
	movq	%rax, -2520(%rbp)       ## 8-byte Spill
	jmp	LBB0_24
LBB0_24:
Ltmp28:
	movl	$250000, %esi           ## imm = 0x3D090
	movq	-2520(%rbp), %rdi       ## 8-byte Reload
	callq	__ZNSt3__113basic_ostreamIcNS_11char_traitsIcEEElsEi
Ltmp29:
	movq	%rax, -2528(%rbp)       ## 8-byte Spill
	jmp	LBB0_25
LBB0_25:
Ltmp30:
	leaq	L_.str1(%rip), %rsi
	movq	-2528(%rbp), %rdi       ## 8-byte Reload
	callq	__ZNSt3__1lsINS_11char_traitsIcEEEERNS_13basic_ostreamIcT_EES6_PKc
Ltmp31:
	movq	%rax, -2536(%rbp)       ## 8-byte Spill
	jmp	LBB0_26
LBB0_26:
	fldt	-2048(%rbp)
Ltmp32:
	movq	%rsp, %rax
	fstpt	(%rax)
	movq	-2536(%rbp), %rdi       ## 8-byte Reload
	callq	__ZNSt3__113basic_ostreamIcNS_11char_traitsIcEEElsEe
Ltmp33:
	movq	%rax, -2544(%rbp)       ## 8-byte Spill
	jmp	LBB0_27
LBB0_27:
Ltmp34:
	leaq	L_.str2(%rip), %rsi
	movq	-2544(%rbp), %rdi       ## 8-byte Reload
	callq	__ZNSt3__1lsINS_11char_traitsIcEEEERNS_13basic_ostreamIcT_EES6_PKc
Ltmp35:
	movq	%rax, -2552(%rbp)       ## 8-byte Spill
	jmp	LBB0_28
LBB0_28:
	movq	-2552(%rbp), %rax       ## 8-byte Reload
	movq	%rax, -1248(%rbp)
	leaq	__ZNSt3__14endlIcNS_11char_traitsIcEEEERNS_13basic_ostreamIT_T0_EES7_(%rip), %rcx
	movq	%rcx, -1256(%rbp)
	movq	-1248(%rbp), %rdi
Ltmp36:
	callq	*%rcx
Ltmp37:
	movq	%rax, -2560(%rbp)       ## 8-byte Spill
	jmp	LBB0_29
LBB0_29:                                ## %_ZNSt3__113basic_ostreamIcNS_11char_traitsIcEEElsEPFRS3_S4_E.exit2
	.loc	13 310 0                ## /Applications/Xcode.app/Contents/Developer/Toolchains/XcodeDefault.xctoolchain/usr/bin/../include/c++/v1/ostream:310:0
Ltmp239:
	jmp	LBB0_30
Ltmp240:
LBB0_30:
	##DEBUG_VALUE: main:procOverhead <- [RBP+-2072]
	leaq	-2072(%rbp), %rax
	movq	%rax, -1240(%rbp)
	movq	%rax, -1232(%rbp)
	movq	%rax, -1224(%rbp)
	movq	%rax, -1216(%rbp)
	.loc	20 458 0                ## /Applications/Xcode.app/Contents/Developer/Toolchains/XcodeDefault.xctoolchain/usr/bin/../include/c++/v1/vector:458:0
Ltmp241:
	movq	$0, -2072(%rbp)
	movq	$0, -2064(%rbp)
	leaq	-2056(%rbp), %rcx
	movq	%rcx, -1200(%rbp)
	movq	$0, -1208(%rbp)
	movq	-1200(%rbp), %rcx
	movq	%rcx, -1184(%rbp)
	movq	$0, -1192(%rbp)
	movq	-1184(%rbp), %rcx
	leaq	-1192(%rbp), %rdx
Ltmp242:
	##DEBUG_VALUE: __compressed_pair:__t1 <- RDX
	movq	%rdx, -1176(%rbp)
	.loc	7 2313 16               ## /Applications/Xcode.app/Contents/Developer/Toolchains/XcodeDefault.xctoolchain/usr/bin/../include/c++/v1/memory:2313:16
Ltmp243:
	movq	-1192(%rbp), %rdx
Ltmp244:
	movq	%rcx, -1160(%rbp)
	movq	%rdx, -1168(%rbp)
	movq	-1160(%rbp), %rcx
	movq	%rcx, -1152(%rbp)
	leaq	-1168(%rbp), %rdx
Ltmp245:
	##DEBUG_VALUE: __libcpp_compressed_pair_imp:__t1 <- RDX
	movq	%rdx, -1144(%rbp)
	.loc	7 2134 20               ## /Applications/Xcode.app/Contents/Developer/Toolchains/XcodeDefault.xctoolchain/usr/bin/../include/c++/v1/memory:2134:20
Ltmp246:
	movq	-1168(%rbp), %rdx
Ltmp247:
	movq	%rdx, (%rcx)
Ltmp248:
	##DEBUG_VALUE: main:count <- [RBP+-2076]
	.loc	1 35 0                  ## main.cpp:35:0
	movl	$0, -2076(%rbp)
	.loc	1 36 0                  ## main.cpp:36:0
Ltmp39:
	movq	%rax, %rdi
	callq	__Z24measure_procCallOverheadRNSt3__16vectorIeNS_9allocatorIeEEEE
Ltmp40:
	jmp	LBB0_31
Ltmp249:
LBB0_31:
	.loc	1 37 0                  ## main.cpp:37:0
Ltmp41:
	movq	__ZNSt3__14coutE@GOTPCREL(%rip), %rdi
	leaq	L_.str5(%rip), %rsi
	callq	__ZNSt3__1lsINS_11char_traitsIcEEEERNS_13basic_ostreamIcT_EES6_PKc
Ltmp42:
	movq	%rax, -2568(%rbp)       ## 8-byte Spill
	jmp	LBB0_32
LBB0_32:
Ltmp43:
	movl	$250000, %esi           ## imm = 0x3D090
	movq	-2568(%rbp), %rdi       ## 8-byte Reload
	callq	__ZNSt3__113basic_ostreamIcNS_11char_traitsIcEEElsEi
Ltmp44:
	movq	%rax, -2576(%rbp)       ## 8-byte Spill
	jmp	LBB0_33
LBB0_33:
Ltmp45:
	leaq	L_.str1(%rip), %rsi
	movq	-2576(%rbp), %rdi       ## 8-byte Reload
	callq	__ZNSt3__1lsINS_11char_traitsIcEEEERNS_13basic_ostreamIcT_EES6_PKc
Ltmp46:
	movq	%rax, -2584(%rbp)       ## 8-byte Spill
	jmp	LBB0_34
LBB0_34:
	movq	-2584(%rbp), %rax       ## 8-byte Reload
	movq	%rax, -1112(%rbp)
	leaq	__ZNSt3__14endlIcNS_11char_traitsIcEEEERNS_13basic_ostreamIT_T0_EES7_(%rip), %rcx
	movq	%rcx, -1120(%rbp)
	movq	-1112(%rbp), %rdi
Ltmp47:
	callq	*%rcx
Ltmp48:
	movq	%rax, -2592(%rbp)       ## 8-byte Spill
	jmp	LBB0_35
LBB0_35:                                ## %_ZNSt3__113basic_ostreamIcNS_11char_traitsIcEEElsEPFRS3_S4_E.exit4
	.loc	13 310 0                ## /Applications/Xcode.app/Contents/Developer/Toolchains/XcodeDefault.xctoolchain/usr/bin/../include/c++/v1/ostream:310:0
Ltmp250:
	jmp	LBB0_36
Ltmp251:
LBB0_36:
	leaq	-1000(%rbp), %rax
	leaq	-1072(%rbp), %rcx
	leaq	-2072(%rbp), %rdx
	.loc	1 38 0                  ## main.cpp:38:0
Ltmp252:
	movq	%rdx, -2088(%rbp)
	movq	-2088(%rbp), %rdx
	movq	%rdx, -1104(%rbp)
	movq	-1104(%rbp), %rdx
	.loc	20 1417 0               ## /Applications/Xcode.app/Contents/Developer/Toolchains/XcodeDefault.xctoolchain/usr/bin/../include/c++/v1/vector:1417:0
Ltmp253:
	movq	(%rdx), %rsi
	movq	%rdx, -1080(%rbp)
	movq	%rsi, -1088(%rbp)
	.loc	20 1396 0               ## /Applications/Xcode.app/Contents/Developer/Toolchains/XcodeDefault.xctoolchain/usr/bin/../include/c++/v1/vector:1396:0
Ltmp254:
	movq	-1088(%rbp), %rdx
	movq	%rcx, -1056(%rbp)
	movq	%rdx, -1064(%rbp)
	movq	-1056(%rbp), %rcx
	.loc	15 1220 0               ## /Applications/Xcode.app/Contents/Developer/Toolchains/XcodeDefault.xctoolchain/usr/bin/../include/c++/v1/iterator:1220:0
Ltmp255:
	movq	-1064(%rbp), %rdx
	movq	%rcx, -1040(%rbp)
	movq	%rdx, -1048(%rbp)
	movq	-1040(%rbp), %rcx
	.loc	15 1220 0               ## /Applications/Xcode.app/Contents/Developer/Toolchains/XcodeDefault.xctoolchain/usr/bin/../include/c++/v1/iterator:1220:0
Ltmp256:
	movq	-1048(%rbp), %rdx
	movq	%rdx, (%rcx)
Ltmp257:
	.loc	20 1396 0               ## /Applications/Xcode.app/Contents/Developer/Toolchains/XcodeDefault.xctoolchain/usr/bin/../include/c++/v1/vector:1396:0
	movq	-1072(%rbp), %rcx
Ltmp258:
	.loc	20 1417 0               ## /Applications/Xcode.app/Contents/Developer/Toolchains/XcodeDefault.xctoolchain/usr/bin/../include/c++/v1/vector:1417:0
	movq	%rcx, -1096(%rbp)
	movq	-1096(%rbp), %rcx
Ltmp259:
	.loc	1 38 0                  ## main.cpp:38:0
	movq	%rcx, -2096(%rbp)
	movq	-2088(%rbp), %rcx
	movq	%rcx, -1032(%rbp)
	movq	-1032(%rbp), %rcx
	.loc	20 1433 0               ## /Applications/Xcode.app/Contents/Developer/Toolchains/XcodeDefault.xctoolchain/usr/bin/../include/c++/v1/vector:1433:0
Ltmp260:
	movq	8(%rcx), %rdx
	movq	%rcx, -1008(%rbp)
	movq	%rdx, -1016(%rbp)
	.loc	20 1396 0               ## /Applications/Xcode.app/Contents/Developer/Toolchains/XcodeDefault.xctoolchain/usr/bin/../include/c++/v1/vector:1396:0
Ltmp261:
	movq	-1016(%rbp), %rcx
	movq	%rax, -984(%rbp)
	movq	%rcx, -992(%rbp)
	movq	-984(%rbp), %rax
	.loc	15 1220 0               ## /Applications/Xcode.app/Contents/Developer/Toolchains/XcodeDefault.xctoolchain/usr/bin/../include/c++/v1/iterator:1220:0
Ltmp262:
	movq	-992(%rbp), %rcx
	movq	%rax, -968(%rbp)
	movq	%rcx, -976(%rbp)
	movq	-968(%rbp), %rax
	.loc	15 1220 0               ## /Applications/Xcode.app/Contents/Developer/Toolchains/XcodeDefault.xctoolchain/usr/bin/../include/c++/v1/iterator:1220:0
Ltmp263:
	movq	-976(%rbp), %rcx
	movq	%rcx, (%rax)
Ltmp264:
	.loc	20 1396 0               ## /Applications/Xcode.app/Contents/Developer/Toolchains/XcodeDefault.xctoolchain/usr/bin/../include/c++/v1/vector:1396:0
	movq	-1000(%rbp), %rax
Ltmp265:
	.loc	20 1433 0               ## /Applications/Xcode.app/Contents/Developer/Toolchains/XcodeDefault.xctoolchain/usr/bin/../include/c++/v1/vector:1433:0
	movq	%rax, -1024(%rbp)
	movq	-1024(%rbp), %rax
Ltmp266:
	.loc	1 38 0                  ## main.cpp:38:0
	movq	%rax, -2104(%rbp)
LBB0_37:                                ## =>This Inner Loop Header: Depth=1
	leaq	-2104(%rbp), %rax
	leaq	-2096(%rbp), %rcx
	movq	%rcx, -952(%rbp)
	movq	%rax, -960(%rbp)
	.loc	15 1339 14              ## /Applications/Xcode.app/Contents/Developer/Toolchains/XcodeDefault.xctoolchain/usr/bin/../include/c++/v1/iterator:1339:14
Ltmp267:
	movq	-952(%rbp), %rax
	movq	-960(%rbp), %rcx
	movq	%rax, -936(%rbp)
	movq	%rcx, -944(%rbp)
	.loc	15 1287 0               ## /Applications/Xcode.app/Contents/Developer/Toolchains/XcodeDefault.xctoolchain/usr/bin/../include/c++/v1/iterator:1287:0
Ltmp268:
	movq	-936(%rbp), %rax
	movq	%rax, -928(%rbp)
	movq	-928(%rbp), %rax
	.loc	15 1211 0               ## /Applications/Xcode.app/Contents/Developer/Toolchains/XcodeDefault.xctoolchain/usr/bin/../include/c++/v1/iterator:1211:0
Ltmp269:
	movq	(%rax), %rax
Ltmp270:
	.loc	15 1287 0               ## /Applications/Xcode.app/Contents/Developer/Toolchains/XcodeDefault.xctoolchain/usr/bin/../include/c++/v1/iterator:1287:0
	movq	-944(%rbp), %rcx
	movq	%rcx, -920(%rbp)
	movq	-920(%rbp), %rcx
	cmpq	(%rcx), %rax
	sete	%dl
Ltmp271:
	.loc	15 1339 14              ## /Applications/Xcode.app/Contents/Developer/Toolchains/XcodeDefault.xctoolchain/usr/bin/../include/c++/v1/iterator:1339:14
	xorb	$1, %dl
Ltmp272:
	.loc	1 38 0                  ## main.cpp:38:0
	testb	$1, %dl
	jne	LBB0_38
	jmp	LBB0_49
LBB0_38:                                ##   in Loop: Header=BB0_37 Depth=1
Ltmp273:
	##DEBUG_VALUE: it <- [RBP+-2128]
	leaq	-2096(%rbp), %rax
	movq	%rax, -896(%rbp)
	.loc	15 1155 0               ## /Applications/Xcode.app/Contents/Developer/Toolchains/XcodeDefault.xctoolchain/usr/bin/../include/c++/v1/iterator:1155:0
Ltmp274:
	movq	-2096(%rbp), %rax
Ltmp275:
	.loc	1 38 0                  ## main.cpp:38:0
	fldt	(%rax)
	fstpt	-2128(%rbp)
	.loc	1 39 0                  ## main.cpp:39:0
Ltmp149:
	movq	__ZNSt3__14coutE@GOTPCREL(%rip), %rdi
	leaq	L_.str6(%rip), %rsi
	callq	__ZNSt3__1lsINS_11char_traitsIcEEEERNS_13basic_ostreamIcT_EES6_PKc
Ltmp150:
	movq	%rax, -2600(%rbp)       ## 8-byte Spill
	jmp	LBB0_39
Ltmp276:
LBB0_39:                                ##   in Loop: Header=BB0_37 Depth=1
	movl	-2076(%rbp), %eax
	movl	%eax, %ecx
	incl	%ecx
	movl	%ecx, -2076(%rbp)
Ltmp151:
	movq	-2600(%rbp), %rdi       ## 8-byte Reload
	movl	%eax, %esi
	callq	__ZNSt3__113basic_ostreamIcNS_11char_traitsIcEEElsEi
Ltmp152:
	movq	%rax, -2608(%rbp)       ## 8-byte Spill
	jmp	LBB0_40
LBB0_40:                                ##   in Loop: Header=BB0_37 Depth=1
Ltmp153:
	leaq	L_.str7(%rip), %rsi
	movq	-2608(%rbp), %rdi       ## 8-byte Reload
	callq	__ZNSt3__1lsINS_11char_traitsIcEEEERNS_13basic_ostreamIcT_EES6_PKc
Ltmp154:
	movq	%rax, -2616(%rbp)       ## 8-byte Spill
	jmp	LBB0_41
LBB0_41:                                ##   in Loop: Header=BB0_37 Depth=1
	fldt	-2128(%rbp)
Ltmp155:
	movq	%rsp, %rax
	fstpt	(%rax)
	movq	-2616(%rbp), %rdi       ## 8-byte Reload
	callq	__ZNSt3__113basic_ostreamIcNS_11char_traitsIcEEElsEe
Ltmp156:
	movq	%rax, -2624(%rbp)       ## 8-byte Spill
	jmp	LBB0_42
LBB0_42:                                ##   in Loop: Header=BB0_37 Depth=1
Ltmp157:
	leaq	L_.str8(%rip), %rsi
	movq	-2624(%rbp), %rdi       ## 8-byte Reload
	callq	__ZNSt3__1lsINS_11char_traitsIcEEEERNS_13basic_ostreamIcT_EES6_PKc
Ltmp158:
	movq	%rax, -2632(%rbp)       ## 8-byte Spill
	jmp	LBB0_43
LBB0_43:                                ##   in Loop: Header=BB0_37 Depth=1
	movq	-2632(%rbp), %rax       ## 8-byte Reload
	movq	%rax, -880(%rbp)
	leaq	__ZNSt3__14endlIcNS_11char_traitsIcEEEERNS_13basic_ostreamIT_T0_EES7_(%rip), %rcx
	movq	%rcx, -888(%rbp)
	movq	-880(%rbp), %rdi
Ltmp159:
	callq	*%rcx
Ltmp160:
	movq	%rax, -2640(%rbp)       ## 8-byte Spill
	jmp	LBB0_44
LBB0_44:                                ## %_ZNSt3__113basic_ostreamIcNS_11char_traitsIcEEElsEPFRS3_S4_E.exit6
                                        ##   in Loop: Header=BB0_37 Depth=1
	.loc	13 310 0                ## /Applications/Xcode.app/Contents/Developer/Toolchains/XcodeDefault.xctoolchain/usr/bin/../include/c++/v1/ostream:310:0
Ltmp277:
	jmp	LBB0_45
Ltmp278:
LBB0_45:                                ##   in Loop: Header=BB0_37 Depth=1
	.loc	1 39 0                  ## main.cpp:39:0
	jmp	LBB0_46
LBB0_46:                                ##   in Loop: Header=BB0_37 Depth=1
	leaq	-2096(%rbp), %rax
	movq	%rax, -872(%rbp)
	movq	-872(%rbp), %rax
	.loc	15 1171 0               ## /Applications/Xcode.app/Contents/Developer/Toolchains/XcodeDefault.xctoolchain/usr/bin/../include/c++/v1/iterator:1171:0
Ltmp279:
	movq	(%rax), %rcx
	addq	$16, %rcx
	movq	%rcx, (%rax)
Ltmp280:
	.loc	1 38 0                  ## main.cpp:38:0
	jmp	LBB0_37
Ltmp281:
LBB0_47:
Ltmp38:
	.loc	1 106 0                 ## main.cpp:106:0
	movl	%edx, %ecx
	movq	%rax, -2000(%rbp)
	movl	%ecx, -2004(%rbp)
	jmp	LBB0_132
LBB0_48:
Ltmp161:
	movl	%edx, %ecx
	movq	%rax, -2000(%rbp)
	movl	%ecx, -2004(%rbp)
	jmp	LBB0_131
LBB0_49:
Ltmp282:
	##DEBUG_VALUE: main:syscallOverhead <- [RBP+-2144]
	.loc	1 44 0                  ## main.cpp:44:0
Ltmp49:
	callq	__Z23measure_sysCallOverheadv
Ltmp50:
	fstpt	-2652(%rbp)             ## 10-byte Folded Spill
	jmp	LBB0_50
Ltmp283:
LBB0_50:
	fldt	-2652(%rbp)             ## 10-byte Folded Reload
	fstpt	-2144(%rbp)
	.loc	1 45 0                  ## main.cpp:45:0
Ltmp51:
	movq	__ZNSt3__14coutE@GOTPCREL(%rip), %rdi
	leaq	L_.str9(%rip), %rsi
	callq	__ZNSt3__1lsINS_11char_traitsIcEEEERNS_13basic_ostreamIcT_EES6_PKc
Ltmp52:
	movq	%rax, -2664(%rbp)       ## 8-byte Spill
	jmp	LBB0_51
LBB0_51:
Ltmp53:
	movl	$250000, %esi           ## imm = 0x3D090
	movq	-2664(%rbp), %rdi       ## 8-byte Reload
	callq	__ZNSt3__113basic_ostreamIcNS_11char_traitsIcEEElsEi
Ltmp54:
	movq	%rax, -2672(%rbp)       ## 8-byte Spill
	jmp	LBB0_52
LBB0_52:
Ltmp55:
	leaq	L_.str10(%rip), %rsi
	movq	-2672(%rbp), %rdi       ## 8-byte Reload
	callq	__ZNSt3__1lsINS_11char_traitsIcEEEERNS_13basic_ostreamIcT_EES6_PKc
Ltmp56:
	movq	%rax, -2680(%rbp)       ## 8-byte Spill
	jmp	LBB0_53
LBB0_53:
	fldt	-2144(%rbp)
Ltmp57:
	movq	%rsp, %rax
	fstpt	(%rax)
	movq	-2680(%rbp), %rdi       ## 8-byte Reload
	callq	__ZNSt3__113basic_ostreamIcNS_11char_traitsIcEEElsEe
Ltmp58:
	movq	%rax, -2688(%rbp)       ## 8-byte Spill
	jmp	LBB0_54
LBB0_54:
Ltmp59:
	leaq	L_.str8(%rip), %rsi
	movq	-2688(%rbp), %rdi       ## 8-byte Reload
	callq	__ZNSt3__1lsINS_11char_traitsIcEEEERNS_13basic_ostreamIcT_EES6_PKc
Ltmp60:
	movq	%rax, -2696(%rbp)       ## 8-byte Spill
	jmp	LBB0_55
LBB0_55:
	movq	-2696(%rbp), %rax       ## 8-byte Reload
	movq	%rax, -472(%rbp)
	leaq	__ZNSt3__14endlIcNS_11char_traitsIcEEEERNS_13basic_ostreamIT_T0_EES7_(%rip), %rcx
	movq	%rcx, -480(%rbp)
	movq	-472(%rbp), %rdi
Ltmp61:
	callq	*%rcx
Ltmp62:
	movq	%rax, -2704(%rbp)       ## 8-byte Spill
	jmp	LBB0_56
LBB0_56:                                ## %_ZNSt3__113basic_ostreamIcNS_11char_traitsIcEEElsEPFRS3_S4_E.exit9
	.loc	13 310 0                ## /Applications/Xcode.app/Contents/Developer/Toolchains/XcodeDefault.xctoolchain/usr/bin/../include/c++/v1/ostream:310:0
Ltmp284:
	jmp	LBB0_57
Ltmp285:
LBB0_57:
	##DEBUG_VALUE: main:processOverhead <- [RBP+-2160]
	.loc	1 50 0                  ## main.cpp:50:0
Ltmp63:
	callq	__Z23measure_processOverheadv
Ltmp64:
	fstpt	-2716(%rbp)             ## 10-byte Folded Spill
	jmp	LBB0_58
Ltmp286:
LBB0_58:
	fldt	-2716(%rbp)             ## 10-byte Folded Reload
	fstpt	-2160(%rbp)
	.loc	1 51 0                  ## main.cpp:51:0
Ltmp65:
	movq	__ZNSt3__14coutE@GOTPCREL(%rip), %rdi
	leaq	L_.str11(%rip), %rsi
	callq	__ZNSt3__1lsINS_11char_traitsIcEEEERNS_13basic_ostreamIcT_EES6_PKc
Ltmp66:
	movq	%rax, -2728(%rbp)       ## 8-byte Spill
	jmp	LBB0_59
LBB0_59:
	fldt	-2160(%rbp)
Ltmp67:
	movq	%rsp, %rax
	fstpt	(%rax)
	movq	-2728(%rbp), %rdi       ## 8-byte Reload
	callq	__ZNSt3__113basic_ostreamIcNS_11char_traitsIcEEElsEe
Ltmp68:
	movq	%rax, -2736(%rbp)       ## 8-byte Spill
	jmp	LBB0_60
LBB0_60:
Ltmp69:
	leaq	L_.str12(%rip), %rsi
	movq	-2736(%rbp), %rdi       ## 8-byte Reload
	callq	__ZNSt3__1lsINS_11char_traitsIcEEEERNS_13basic_ostreamIcT_EES6_PKc
Ltmp70:
	movq	%rax, -2744(%rbp)       ## 8-byte Spill
	jmp	LBB0_61
LBB0_61:
	movq	-2744(%rbp), %rax       ## 8-byte Reload
	movq	%rax, -456(%rbp)
	leaq	__ZNSt3__14endlIcNS_11char_traitsIcEEEERNS_13basic_ostreamIT_T0_EES7_(%rip), %rcx
	movq	%rcx, -464(%rbp)
	movq	-456(%rbp), %rdi
Ltmp71:
	callq	*%rcx
Ltmp72:
	movq	%rax, -2752(%rbp)       ## 8-byte Spill
	jmp	LBB0_62
LBB0_62:                                ## %_ZNSt3__113basic_ostreamIcNS_11char_traitsIcEEElsEPFRS3_S4_E.exit10
	.loc	13 310 0                ## /Applications/Xcode.app/Contents/Developer/Toolchains/XcodeDefault.xctoolchain/usr/bin/../include/c++/v1/ostream:310:0
Ltmp287:
	jmp	LBB0_63
Ltmp288:
LBB0_63:
	##DEBUG_VALUE: main:threadOverhead <- [RBP+-2176]
	.loc	1 56 0                  ## main.cpp:56:0
Ltmp73:
	callq	__Z22measure_threadOverheadv
Ltmp74:
	fstpt	-2764(%rbp)             ## 10-byte Folded Spill
	jmp	LBB0_64
Ltmp289:
LBB0_64:
	fldt	-2764(%rbp)             ## 10-byte Folded Reload
	fstpt	-2176(%rbp)
	.loc	1 57 0                  ## main.cpp:57:0
Ltmp75:
	movq	__ZNSt3__14coutE@GOTPCREL(%rip), %rdi
	leaq	L_.str13(%rip), %rsi
	callq	__ZNSt3__1lsINS_11char_traitsIcEEEERNS_13basic_ostreamIcT_EES6_PKc
Ltmp76:
	movq	%rax, -2776(%rbp)       ## 8-byte Spill
	jmp	LBB0_65
LBB0_65:
	fldt	-2176(%rbp)
Ltmp77:
	movq	%rsp, %rax
	fstpt	(%rax)
	movq	-2776(%rbp), %rdi       ## 8-byte Reload
	callq	__ZNSt3__113basic_ostreamIcNS_11char_traitsIcEEElsEe
Ltmp78:
	movq	%rax, -2784(%rbp)       ## 8-byte Spill
	jmp	LBB0_66
LBB0_66:
Ltmp79:
	leaq	L_.str8(%rip), %rsi
	movq	-2784(%rbp), %rdi       ## 8-byte Reload
	callq	__ZNSt3__1lsINS_11char_traitsIcEEEERNS_13basic_ostreamIcT_EES6_PKc
Ltmp80:
	movq	%rax, -2792(%rbp)       ## 8-byte Spill
	jmp	LBB0_67
LBB0_67:
	movq	-2792(%rbp), %rax       ## 8-byte Reload
	movq	%rax, -440(%rbp)
	leaq	__ZNSt3__14endlIcNS_11char_traitsIcEEEERNS_13basic_ostreamIT_T0_EES7_(%rip), %rcx
	movq	%rcx, -448(%rbp)
	movq	-440(%rbp), %rdi
Ltmp81:
	callq	*%rcx
Ltmp82:
	movq	%rax, -2800(%rbp)       ## 8-byte Spill
	jmp	LBB0_68
LBB0_68:                                ## %_ZNSt3__113basic_ostreamIcNS_11char_traitsIcEEElsEPFRS3_S4_E.exit11
	.loc	13 310 0                ## /Applications/Xcode.app/Contents/Developer/Toolchains/XcodeDefault.xctoolchain/usr/bin/../include/c++/v1/ostream:310:0
Ltmp290:
	jmp	LBB0_69
Ltmp291:
LBB0_69:
	##DEBUG_VALUE: main:procContextSwitchOverhead <- [RBP+-2192]
	.loc	1 62 0                  ## main.cpp:62:0
Ltmp83:
	callq	__Z36measure_processContextSwitchOverheadv
Ltmp84:
	fstpt	-2812(%rbp)             ## 10-byte Folded Spill
	jmp	LBB0_70
Ltmp292:
LBB0_70:
	fldt	-2812(%rbp)             ## 10-byte Folded Reload
	fstpt	-2192(%rbp)
	.loc	1 63 0                  ## main.cpp:63:0
Ltmp85:
	movq	__ZNSt3__14coutE@GOTPCREL(%rip), %rdi
	leaq	L_.str14(%rip), %rsi
	callq	__ZNSt3__1lsINS_11char_traitsIcEEEERNS_13basic_ostreamIcT_EES6_PKc
Ltmp86:
	movq	%rax, -2824(%rbp)       ## 8-byte Spill
	jmp	LBB0_71
LBB0_71:
	fldt	-2192(%rbp)
Ltmp87:
	movq	%rsp, %rax
	fstpt	(%rax)
	movq	-2824(%rbp), %rdi       ## 8-byte Reload
	callq	__ZNSt3__113basic_ostreamIcNS_11char_traitsIcEEElsEe
Ltmp88:
	movq	%rax, -2832(%rbp)       ## 8-byte Spill
	jmp	LBB0_72
LBB0_72:
Ltmp89:
	leaq	L_.str8(%rip), %rsi
	movq	-2832(%rbp), %rdi       ## 8-byte Reload
	callq	__ZNSt3__1lsINS_11char_traitsIcEEEERNS_13basic_ostreamIcT_EES6_PKc
Ltmp90:
	movq	%rax, -2840(%rbp)       ## 8-byte Spill
	jmp	LBB0_73
LBB0_73:
	movq	-2840(%rbp), %rax       ## 8-byte Reload
	movq	%rax, -424(%rbp)
	leaq	__ZNSt3__14endlIcNS_11char_traitsIcEEEERNS_13basic_ostreamIT_T0_EES7_(%rip), %rcx
	movq	%rcx, -432(%rbp)
	movq	-424(%rbp), %rdi
Ltmp91:
	callq	*%rcx
Ltmp92:
	movq	%rax, -2848(%rbp)       ## 8-byte Spill
	jmp	LBB0_74
LBB0_74:                                ## %_ZNSt3__113basic_ostreamIcNS_11char_traitsIcEEElsEPFRS3_S4_E.exit12
	.loc	13 310 0                ## /Applications/Xcode.app/Contents/Developer/Toolchains/XcodeDefault.xctoolchain/usr/bin/../include/c++/v1/ostream:310:0
Ltmp293:
	jmp	LBB0_75
Ltmp294:
LBB0_75:
	##DEBUG_VALUE: main:threadContextSwitchOverhead <- [RBP+-2208]
	.loc	1 68 0                  ## main.cpp:68:0
Ltmp93:
	callq	__Z35measure_threadContextSwitchOverheadv
Ltmp94:
	fstpt	-2860(%rbp)             ## 10-byte Folded Spill
	jmp	LBB0_76
Ltmp295:
LBB0_76:
	fldt	-2860(%rbp)             ## 10-byte Folded Reload
	fstpt	-2208(%rbp)
	.loc	1 69 0                  ## main.cpp:69:0
Ltmp95:
	movq	__ZNSt3__14coutE@GOTPCREL(%rip), %rdi
	leaq	L_.str15(%rip), %rsi
	callq	__ZNSt3__1lsINS_11char_traitsIcEEEERNS_13basic_ostreamIcT_EES6_PKc
Ltmp96:
	movq	%rax, -2872(%rbp)       ## 8-byte Spill
	jmp	LBB0_77
LBB0_77:
	fldt	-2208(%rbp)
Ltmp97:
	movq	%rsp, %rax
	fstpt	(%rax)
	movq	-2872(%rbp), %rdi       ## 8-byte Reload
	callq	__ZNSt3__113basic_ostreamIcNS_11char_traitsIcEEElsEe
Ltmp98:
	movq	%rax, -2880(%rbp)       ## 8-byte Spill
	jmp	LBB0_78
LBB0_78:
Ltmp99:
	leaq	L_.str8(%rip), %rsi
	movq	-2880(%rbp), %rdi       ## 8-byte Reload
	callq	__ZNSt3__1lsINS_11char_traitsIcEEEERNS_13basic_ostreamIcT_EES6_PKc
Ltmp100:
	movq	%rax, -2888(%rbp)       ## 8-byte Spill
	jmp	LBB0_79
LBB0_79:
	movq	-2888(%rbp), %rax       ## 8-byte Reload
	movq	%rax, -408(%rbp)
	leaq	__ZNSt3__14endlIcNS_11char_traitsIcEEEERNS_13basic_ostreamIT_T0_EES7_(%rip), %rcx
	movq	%rcx, -416(%rbp)
	movq	-408(%rbp), %rdi
Ltmp101:
	callq	*%rcx
Ltmp102:
	movq	%rax, -2896(%rbp)       ## 8-byte Spill
	jmp	LBB0_80
LBB0_80:                                ## %_ZNSt3__113basic_ostreamIcNS_11char_traitsIcEEElsEPFRS3_S4_E.exit13
	.loc	13 310 0                ## /Applications/Xcode.app/Contents/Developer/Toolchains/XcodeDefault.xctoolchain/usr/bin/../include/c++/v1/ostream:310:0
Ltmp296:
	jmp	LBB0_81
Ltmp297:
LBB0_81:
	.loc	1 75 0                  ## main.cpp:75:0
Ltmp103:
	leaq	-2232(%rbp), %rdi
	callq	__Z18measure_memLatencyv
Ltmp104:
	jmp	LBB0_82
LBB0_82:
	leaq	-2232(%rbp), %rdi
	callq	__ZNSt3__16vectorINS0_IeNS_9allocatorIeEEEENS1_IS3_EEED1Ev
Ltmp298:
	##DEBUG_VALUE: main:totBWWrite <- [RBP+-2256]
	.loc	1 77 0                  ## main.cpp:77:0
Ltmp105:
	leaq	-2256(%rbp), %rdi
	callq	__Z25measure_memWriteBandwidthv
Ltmp106:
	jmp	LBB0_83
Ltmp299:
LBB0_83:
	.loc	1 78 0                  ## main.cpp:78:0
Ltmp107:
	movq	__ZNSt3__14coutE@GOTPCREL(%rip), %rdi
	leaq	L_.str16(%rip), %rsi
	callq	__ZNSt3__1lsINS_11char_traitsIcEEEERNS_13basic_ostreamIcT_EES6_PKc
Ltmp108:
	movq	%rax, -2904(%rbp)       ## 8-byte Spill
	jmp	LBB0_84
LBB0_84:
	leaq	-176(%rbp), %rax
	leaq	-168(%rbp), %rcx
	leaq	-280(%rbp), %rdx
	leaq	-2256(%rbp), %rsi
	leaq	-368(%rbp), %rdi
	movq	%rsi, -400(%rbp)
	movq	-400(%rbp), %r8
	.loc	20 1417 0               ## /Applications/Xcode.app/Contents/Developer/Toolchains/XcodeDefault.xctoolchain/usr/bin/../include/c++/v1/vector:1417:0
Ltmp300:
	movq	(%r8), %r9
	movq	%r8, -376(%rbp)
	movq	%r9, -384(%rbp)
	.loc	20 1396 0               ## /Applications/Xcode.app/Contents/Developer/Toolchains/XcodeDefault.xctoolchain/usr/bin/../include/c++/v1/vector:1396:0
Ltmp301:
	movq	-384(%rbp), %r8
	movq	%rdi, -352(%rbp)
	movq	%r8, -360(%rbp)
	movq	-352(%rbp), %rdi
	.loc	15 1220 0               ## /Applications/Xcode.app/Contents/Developer/Toolchains/XcodeDefault.xctoolchain/usr/bin/../include/c++/v1/iterator:1220:0
Ltmp302:
	movq	-360(%rbp), %r8
	movq	%rdi, -336(%rbp)
	movq	%r8, -344(%rbp)
	movq	-336(%rbp), %rdi
	.loc	15 1220 0               ## /Applications/Xcode.app/Contents/Developer/Toolchains/XcodeDefault.xctoolchain/usr/bin/../include/c++/v1/iterator:1220:0
Ltmp303:
	movq	-344(%rbp), %r8
	movq	%r8, (%rdi)
Ltmp304:
	.loc	20 1396 0               ## /Applications/Xcode.app/Contents/Developer/Toolchains/XcodeDefault.xctoolchain/usr/bin/../include/c++/v1/vector:1396:0
	movq	-368(%rbp), %rdi
Ltmp305:
	.loc	20 1417 0               ## /Applications/Xcode.app/Contents/Developer/Toolchains/XcodeDefault.xctoolchain/usr/bin/../include/c++/v1/vector:1417:0
	movq	%rdi, -392(%rbp)
	movq	-392(%rbp), %rdi
Ltmp306:
	.loc	1 78 0                  ## main.cpp:78:0
	movq	%rdi, -2264(%rbp)
	movq	%rsi, -312(%rbp)
	movq	-312(%rbp), %rsi
	.loc	20 1433 0               ## /Applications/Xcode.app/Contents/Developer/Toolchains/XcodeDefault.xctoolchain/usr/bin/../include/c++/v1/vector:1433:0
Ltmp307:
	movq	8(%rsi), %rdi
	movq	%rsi, -288(%rbp)
	movq	%rdi, -296(%rbp)
	.loc	20 1396 0               ## /Applications/Xcode.app/Contents/Developer/Toolchains/XcodeDefault.xctoolchain/usr/bin/../include/c++/v1/vector:1396:0
Ltmp308:
	movq	-296(%rbp), %rsi
	movq	%rdx, -264(%rbp)
	movq	%rsi, -272(%rbp)
	movq	-264(%rbp), %rdx
	.loc	15 1220 0               ## /Applications/Xcode.app/Contents/Developer/Toolchains/XcodeDefault.xctoolchain/usr/bin/../include/c++/v1/iterator:1220:0
Ltmp309:
	movq	-272(%rbp), %rsi
	movq	%rdx, -248(%rbp)
	movq	%rsi, -256(%rbp)
	movq	-248(%rbp), %rdx
	.loc	15 1220 0               ## /Applications/Xcode.app/Contents/Developer/Toolchains/XcodeDefault.xctoolchain/usr/bin/../include/c++/v1/iterator:1220:0
Ltmp310:
	movq	-256(%rbp), %rsi
	movq	%rsi, (%rdx)
Ltmp311:
	.loc	20 1396 0               ## /Applications/Xcode.app/Contents/Developer/Toolchains/XcodeDefault.xctoolchain/usr/bin/../include/c++/v1/vector:1396:0
	movq	-280(%rbp), %rdx
Ltmp312:
	.loc	20 1433 0               ## /Applications/Xcode.app/Contents/Developer/Toolchains/XcodeDefault.xctoolchain/usr/bin/../include/c++/v1/vector:1433:0
	movq	%rdx, -304(%rbp)
	movq	-304(%rbp), %rdx
Ltmp313:
	.loc	1 78 0                  ## main.cpp:78:0
	movq	%rdx, -2272(%rbp)
	.loc	1 78 35                 ## main.cpp:78:35
	movq	-2264(%rbp), %rdx
	movq	-2272(%rbp), %rsi
	movq	%rdx, -208(%rbp)
	movq	%rsi, -216(%rbp)
	.loc	19 2591 12              ## /Applications/Xcode.app/Contents/Developer/Toolchains/XcodeDefault.xctoolchain/usr/bin/../include/c++/v1/algorithm:2591:12
Ltmp314:
	movq	-208(%rbp), %rdx
	movq	%rdx, -224(%rbp)
	movq	-216(%rbp), %rdx
	movq	%rdx, -232(%rbp)
	movq	-224(%rbp), %rdx
	movq	-232(%rbp), %rsi
	movq	%rdx, -168(%rbp)
	movq	%rsi, -176(%rbp)
Ltmp315:
	##DEBUG_VALUE: max_element<std::__1::__wrap_iter<long double *>, std::__1::__less<long double, long double> >:__first <- RCX
	##DEBUG_VALUE: max_element<std::__1::__wrap_iter<long double *>, std::__1::__less<long double, long double> >:__last <- RAX
	movq	%rcx, -144(%rbp)
	movq	%rax, -152(%rbp)
	.loc	15 1339 14              ## /Applications/Xcode.app/Contents/Developer/Toolchains/XcodeDefault.xctoolchain/usr/bin/../include/c++/v1/iterator:1339:14
Ltmp316:
	movq	-144(%rbp), %rax
Ltmp317:
	movq	-152(%rbp), %rcx
Ltmp318:
	movq	%rax, -128(%rbp)
	movq	%rcx, -136(%rbp)
	.loc	15 1287 0               ## /Applications/Xcode.app/Contents/Developer/Toolchains/XcodeDefault.xctoolchain/usr/bin/../include/c++/v1/iterator:1287:0
Ltmp319:
	movq	-128(%rbp), %rax
	movq	%rax, -120(%rbp)
	movq	-120(%rbp), %rax
	.loc	15 1211 0               ## /Applications/Xcode.app/Contents/Developer/Toolchains/XcodeDefault.xctoolchain/usr/bin/../include/c++/v1/iterator:1211:0
Ltmp320:
	movq	(%rax), %rax
Ltmp321:
	.loc	15 1287 0               ## /Applications/Xcode.app/Contents/Developer/Toolchains/XcodeDefault.xctoolchain/usr/bin/../include/c++/v1/iterator:1287:0
	movq	-136(%rbp), %rcx
	movq	%rcx, -112(%rbp)
	movq	-112(%rbp), %rcx
	cmpq	(%rcx), %rax
	sete	%r10b
Ltmp322:
	.loc	15 1339 14              ## /Applications/Xcode.app/Contents/Developer/Toolchains/XcodeDefault.xctoolchain/usr/bin/../include/c++/v1/iterator:1339:14
	xorb	$1, %r10b
Ltmp323:
	.loc	19 2576 9               ## /Applications/Xcode.app/Contents/Developer/Toolchains/XcodeDefault.xctoolchain/usr/bin/../include/c++/v1/algorithm:2576:9
	testb	$1, %r10b
	jne	LBB0_85
	jmp	LBB0_91
LBB0_85:
	.loc	19 2578 0               ## /Applications/Xcode.app/Contents/Developer/Toolchains/XcodeDefault.xctoolchain/usr/bin/../include/c++/v1/algorithm:2578:0
	movq	-168(%rbp), %rax
	movq	%rax, -192(%rbp)
LBB0_86:                                ## =>This Inner Loop Header: Depth=1
	leaq	-176(%rbp), %rax
	leaq	-192(%rbp), %rcx
	movq	%rcx, -16(%rbp)
	movq	-16(%rbp), %rcx
	.loc	15 1171 0               ## /Applications/Xcode.app/Contents/Developer/Toolchains/XcodeDefault.xctoolchain/usr/bin/../include/c++/v1/iterator:1171:0
Ltmp324:
	movq	(%rcx), %rdx
	addq	$16, %rdx
	movq	%rdx, (%rcx)
	movq	%rcx, -56(%rbp)
	movq	%rax, -64(%rbp)
	.loc	15 1339 14              ## /Applications/Xcode.app/Contents/Developer/Toolchains/XcodeDefault.xctoolchain/usr/bin/../include/c++/v1/iterator:1339:14
	movq	-56(%rbp), %rax
	movq	-64(%rbp), %rcx
	movq	%rax, -40(%rbp)
	movq	%rcx, -48(%rbp)
	.loc	15 1287 0               ## /Applications/Xcode.app/Contents/Developer/Toolchains/XcodeDefault.xctoolchain/usr/bin/../include/c++/v1/iterator:1287:0
Ltmp325:
	movq	-40(%rbp), %rax
	movq	%rax, -32(%rbp)
	movq	-32(%rbp), %rax
	.loc	15 1211 0               ## /Applications/Xcode.app/Contents/Developer/Toolchains/XcodeDefault.xctoolchain/usr/bin/../include/c++/v1/iterator:1211:0
Ltmp326:
	movq	(%rax), %rax
Ltmp327:
	.loc	15 1287 0               ## /Applications/Xcode.app/Contents/Developer/Toolchains/XcodeDefault.xctoolchain/usr/bin/../include/c++/v1/iterator:1287:0
	movq	-48(%rbp), %rcx
	movq	%rcx, -24(%rbp)
	movq	-24(%rbp), %rcx
	cmpq	(%rcx), %rax
	sete	%sil
Ltmp328:
	.loc	15 1339 14              ## /Applications/Xcode.app/Contents/Developer/Toolchains/XcodeDefault.xctoolchain/usr/bin/../include/c++/v1/iterator:1339:14
	xorb	$1, %sil
Ltmp329:
	.loc	19 2579 16              ## /Applications/Xcode.app/Contents/Developer/Toolchains/XcodeDefault.xctoolchain/usr/bin/../include/c++/v1/algorithm:2579:16
	testb	$1, %sil
	jne	LBB0_87
	jmp	LBB0_90
LBB0_87:                                ##   in Loop: Header=BB0_86 Depth=1
	leaq	-168(%rbp), %rax
	movq	%rax, -72(%rbp)
	.loc	15 1155 0               ## /Applications/Xcode.app/Contents/Developer/Toolchains/XcodeDefault.xctoolchain/usr/bin/../include/c++/v1/iterator:1155:0
Ltmp330:
	movq	-168(%rbp), %rax
	leaq	-192(%rbp), %rcx
	movq	%rcx, -80(%rbp)
	movq	-192(%rbp), %rcx
	leaq	-184(%rbp), %rdx
	movq	%rdx, -88(%rbp)
	movq	%rax, -96(%rbp)
	movq	%rcx, -104(%rbp)
	.loc	19 685 0                ## /Applications/Xcode.app/Contents/Developer/Toolchains/XcodeDefault.xctoolchain/usr/bin/../include/c++/v1/algorithm:685:0
	movq	-96(%rbp), %rax
	fldt	(%rax)
	fldt	(%rcx)
Ltmp331:
	.loc	19 2580 0               ## /Applications/Xcode.app/Contents/Developer/Toolchains/XcodeDefault.xctoolchain/usr/bin/../include/c++/v1/algorithm:2580:0
	fucompi	%st(1)
	fstp	%st(0)
	jbe	LBB0_89
	jmp	LBB0_88
LBB0_88:                                ##   in Loop: Header=BB0_86 Depth=1
	.loc	19 2581 0               ## /Applications/Xcode.app/Contents/Developer/Toolchains/XcodeDefault.xctoolchain/usr/bin/../include/c++/v1/algorithm:2581:0
	movq	-192(%rbp), %rax
	movq	%rax, -168(%rbp)
LBB0_89:                                ##   in Loop: Header=BB0_86 Depth=1
	jmp	LBB0_86
LBB0_90:
	.loc	19 2582 0               ## /Applications/Xcode.app/Contents/Developer/Toolchains/XcodeDefault.xctoolchain/usr/bin/../include/c++/v1/algorithm:2582:0
	jmp	LBB0_91
LBB0_91:                                ## %_ZNSt3__111max_elementINS_11__wrap_iterIPeEEEET_S4_S4_.exit21
	.loc	19 2583 0               ## /Applications/Xcode.app/Contents/Developer/Toolchains/XcodeDefault.xctoolchain/usr/bin/../include/c++/v1/algorithm:2583:0
	movq	-168(%rbp), %rax
	movq	%rax, -160(%rbp)
	movq	-160(%rbp), %rax
Ltmp332:
	.loc	19 2591 12              ## /Applications/Xcode.app/Contents/Developer/Toolchains/XcodeDefault.xctoolchain/usr/bin/../include/c++/v1/algorithm:2591:12
	movq	%rax, -200(%rbp)
	movq	-200(%rbp), %rax
	movq	%rax, -2912(%rbp)       ## 8-byte Spill
Ltmp333:
## BB#92:
	.loc	1 78 35                 ## main.cpp:78:35
	movq	-2912(%rbp), %rax       ## 8-byte Reload
	movq	%rax, -2280(%rbp)
	leaq	-2280(%rbp), %rcx
	movq	%rcx, -8(%rbp)
	.loc	15 1155 0               ## /Applications/Xcode.app/Contents/Developer/Toolchains/XcodeDefault.xctoolchain/usr/bin/../include/c++/v1/iterator:1155:0
Ltmp334:
	movq	-2280(%rbp), %rcx
Ltmp335:
	.loc	1 78 35                 ## main.cpp:78:35
	fldt	(%rcx)
	.loc	1 78 0                  ## main.cpp:78:0
Ltmp109:
	movq	%rsp, %rcx
	fstpt	(%rcx)
	movq	-2904(%rbp), %rdi       ## 8-byte Reload
	callq	__ZNSt3__113basic_ostreamIcNS_11char_traitsIcEEElsEe
Ltmp110:
	movq	%rax, -2920(%rbp)       ## 8-byte Spill
	jmp	LBB0_93
LBB0_93:
Ltmp111:
	leaq	L_.str17(%rip), %rsi
	movq	-2920(%rbp), %rdi       ## 8-byte Reload
	callq	__ZNSt3__1lsINS_11char_traitsIcEEEERNS_13basic_ostreamIcT_EES6_PKc
Ltmp112:
	movq	%rax, -2928(%rbp)       ## 8-byte Spill
	jmp	LBB0_94
LBB0_94:
	movq	-2928(%rbp), %rax       ## 8-byte Reload
	movq	%rax, -320(%rbp)
	leaq	__ZNSt3__14endlIcNS_11char_traitsIcEEEERNS_13basic_ostreamIT_T0_EES7_(%rip), %rcx
	movq	%rcx, -328(%rbp)
	movq	-320(%rbp), %rdi
Ltmp113:
	callq	*%rcx
Ltmp114:
	movq	%rax, -2936(%rbp)       ## 8-byte Spill
	jmp	LBB0_95
LBB0_95:                                ## %_ZNSt3__113basic_ostreamIcNS_11char_traitsIcEEElsEPFRS3_S4_E.exit14
	.loc	13 310 0                ## /Applications/Xcode.app/Contents/Developer/Toolchains/XcodeDefault.xctoolchain/usr/bin/../include/c++/v1/ostream:310:0
Ltmp336:
	jmp	LBB0_96
Ltmp337:
LBB0_96:
	##DEBUG_VALUE: main:totBWRead <- [RBP+-2304]
	.loc	1 80 0                  ## main.cpp:80:0
Ltmp115:
	leaq	-2304(%rbp), %rdi
	callq	__Z24measure_memReadBandwidthv
Ltmp116:
	jmp	LBB0_97
Ltmp338:
LBB0_97:
	.loc	1 81 0                  ## main.cpp:81:0
Ltmp118:
	movq	__ZNSt3__14coutE@GOTPCREL(%rip), %rdi
	leaq	L_.str18(%rip), %rsi
	callq	__ZNSt3__1lsINS_11char_traitsIcEEEERNS_13basic_ostreamIcT_EES6_PKc
Ltmp119:
	movq	%rax, -2944(%rbp)       ## 8-byte Spill
	jmp	LBB0_98
LBB0_98:
	leaq	-792(%rbp), %rax
	leaq	-784(%rbp), %rcx
	leaq	-592(%rbp), %rdx
	leaq	-2304(%rbp), %rsi
	leaq	-520(%rbp), %rdi
	movq	%rsi, -552(%rbp)
	movq	-552(%rbp), %r8
	.loc	20 1417 0               ## /Applications/Xcode.app/Contents/Developer/Toolchains/XcodeDefault.xctoolchain/usr/bin/../include/c++/v1/vector:1417:0
Ltmp339:
	movq	(%r8), %r9
	movq	%r8, -528(%rbp)
	movq	%r9, -536(%rbp)
	.loc	20 1396 0               ## /Applications/Xcode.app/Contents/Developer/Toolchains/XcodeDefault.xctoolchain/usr/bin/../include/c++/v1/vector:1396:0
Ltmp340:
	movq	-536(%rbp), %r8
	movq	%rdi, -504(%rbp)
	movq	%r8, -512(%rbp)
	movq	-504(%rbp), %rdi
	.loc	15 1220 0               ## /Applications/Xcode.app/Contents/Developer/Toolchains/XcodeDefault.xctoolchain/usr/bin/../include/c++/v1/iterator:1220:0
Ltmp341:
	movq	-512(%rbp), %r8
	movq	%rdi, -488(%rbp)
	movq	%r8, -496(%rbp)
	movq	-488(%rbp), %rdi
	.loc	15 1220 0               ## /Applications/Xcode.app/Contents/Developer/Toolchains/XcodeDefault.xctoolchain/usr/bin/../include/c++/v1/iterator:1220:0
Ltmp342:
	movq	-496(%rbp), %r8
	movq	%r8, (%rdi)
Ltmp343:
	.loc	20 1396 0               ## /Applications/Xcode.app/Contents/Developer/Toolchains/XcodeDefault.xctoolchain/usr/bin/../include/c++/v1/vector:1396:0
	movq	-520(%rbp), %rdi
Ltmp344:
	.loc	20 1417 0               ## /Applications/Xcode.app/Contents/Developer/Toolchains/XcodeDefault.xctoolchain/usr/bin/../include/c++/v1/vector:1417:0
	movq	%rdi, -544(%rbp)
	movq	-544(%rbp), %rdi
Ltmp345:
	.loc	1 81 0                  ## main.cpp:81:0
	movq	%rdi, -2312(%rbp)
	movq	%rsi, -624(%rbp)
	movq	-624(%rbp), %rsi
	.loc	20 1433 0               ## /Applications/Xcode.app/Contents/Developer/Toolchains/XcodeDefault.xctoolchain/usr/bin/../include/c++/v1/vector:1433:0
Ltmp346:
	movq	8(%rsi), %rdi
	movq	%rsi, -600(%rbp)
	movq	%rdi, -608(%rbp)
	.loc	20 1396 0               ## /Applications/Xcode.app/Contents/Developer/Toolchains/XcodeDefault.xctoolchain/usr/bin/../include/c++/v1/vector:1396:0
Ltmp347:
	movq	-608(%rbp), %rsi
	movq	%rdx, -576(%rbp)
	movq	%rsi, -584(%rbp)
	movq	-576(%rbp), %rdx
	.loc	15 1220 0               ## /Applications/Xcode.app/Contents/Developer/Toolchains/XcodeDefault.xctoolchain/usr/bin/../include/c++/v1/iterator:1220:0
Ltmp348:
	movq	-584(%rbp), %rsi
	movq	%rdx, -560(%rbp)
	movq	%rsi, -568(%rbp)
	movq	-560(%rbp), %rdx
	.loc	15 1220 0               ## /Applications/Xcode.app/Contents/Developer/Toolchains/XcodeDefault.xctoolchain/usr/bin/../include/c++/v1/iterator:1220:0
Ltmp349:
	movq	-568(%rbp), %rsi
	movq	%rsi, (%rdx)
Ltmp350:
	.loc	20 1396 0               ## /Applications/Xcode.app/Contents/Developer/Toolchains/XcodeDefault.xctoolchain/usr/bin/../include/c++/v1/vector:1396:0
	movq	-592(%rbp), %rdx
Ltmp351:
	.loc	20 1433 0               ## /Applications/Xcode.app/Contents/Developer/Toolchains/XcodeDefault.xctoolchain/usr/bin/../include/c++/v1/vector:1433:0
	movq	%rdx, -616(%rbp)
	movq	-616(%rbp), %rdx
Ltmp352:
	.loc	1 81 0                  ## main.cpp:81:0
	movq	%rdx, -2320(%rbp)
	.loc	1 81 34                 ## main.cpp:81:34
	movq	-2312(%rbp), %rdx
	movq	-2320(%rbp), %rsi
	movq	%rdx, -824(%rbp)
	movq	%rsi, -832(%rbp)
	.loc	19 2591 12              ## /Applications/Xcode.app/Contents/Developer/Toolchains/XcodeDefault.xctoolchain/usr/bin/../include/c++/v1/algorithm:2591:12
Ltmp353:
	movq	-824(%rbp), %rdx
	movq	%rdx, -840(%rbp)
	movq	-832(%rbp), %rdx
	movq	%rdx, -848(%rbp)
	movq	-840(%rbp), %rdx
	movq	-848(%rbp), %rsi
	movq	%rdx, -784(%rbp)
	movq	%rsi, -792(%rbp)
Ltmp354:
	##DEBUG_VALUE: max_element<std::__1::__wrap_iter<long double *>, std::__1::__less<long double, long double> >:__first <- RCX
	##DEBUG_VALUE: max_element<std::__1::__wrap_iter<long double *>, std::__1::__less<long double, long double> >:__last <- RAX
	movq	%rcx, -760(%rbp)
	movq	%rax, -768(%rbp)
	.loc	15 1339 14              ## /Applications/Xcode.app/Contents/Developer/Toolchains/XcodeDefault.xctoolchain/usr/bin/../include/c++/v1/iterator:1339:14
Ltmp355:
	movq	-760(%rbp), %rax
Ltmp356:
	movq	-768(%rbp), %rcx
Ltmp357:
	movq	%rax, -744(%rbp)
	movq	%rcx, -752(%rbp)
	.loc	15 1287 0               ## /Applications/Xcode.app/Contents/Developer/Toolchains/XcodeDefault.xctoolchain/usr/bin/../include/c++/v1/iterator:1287:0
Ltmp358:
	movq	-744(%rbp), %rax
	movq	%rax, -736(%rbp)
	movq	-736(%rbp), %rax
	.loc	15 1211 0               ## /Applications/Xcode.app/Contents/Developer/Toolchains/XcodeDefault.xctoolchain/usr/bin/../include/c++/v1/iterator:1211:0
Ltmp359:
	movq	(%rax), %rax
Ltmp360:
	.loc	15 1287 0               ## /Applications/Xcode.app/Contents/Developer/Toolchains/XcodeDefault.xctoolchain/usr/bin/../include/c++/v1/iterator:1287:0
	movq	-752(%rbp), %rcx
	movq	%rcx, -728(%rbp)
	movq	-728(%rbp), %rcx
	cmpq	(%rcx), %rax
	sete	%r10b
Ltmp361:
	.loc	15 1339 14              ## /Applications/Xcode.app/Contents/Developer/Toolchains/XcodeDefault.xctoolchain/usr/bin/../include/c++/v1/iterator:1339:14
	xorb	$1, %r10b
Ltmp362:
	.loc	19 2576 9               ## /Applications/Xcode.app/Contents/Developer/Toolchains/XcodeDefault.xctoolchain/usr/bin/../include/c++/v1/algorithm:2576:9
	testb	$1, %r10b
	jne	LBB0_99
	jmp	LBB0_105
LBB0_99:
	.loc	19 2578 0               ## /Applications/Xcode.app/Contents/Developer/Toolchains/XcodeDefault.xctoolchain/usr/bin/../include/c++/v1/algorithm:2578:0
	movq	-784(%rbp), %rax
	movq	%rax, -808(%rbp)
LBB0_100:                               ## =>This Inner Loop Header: Depth=1
	leaq	-792(%rbp), %rax
	leaq	-808(%rbp), %rcx
	movq	%rcx, -632(%rbp)
	movq	-632(%rbp), %rcx
	.loc	15 1171 0               ## /Applications/Xcode.app/Contents/Developer/Toolchains/XcodeDefault.xctoolchain/usr/bin/../include/c++/v1/iterator:1171:0
Ltmp363:
	movq	(%rcx), %rdx
	addq	$16, %rdx
	movq	%rdx, (%rcx)
	movq	%rcx, -672(%rbp)
	movq	%rax, -680(%rbp)
	.loc	15 1339 14              ## /Applications/Xcode.app/Contents/Developer/Toolchains/XcodeDefault.xctoolchain/usr/bin/../include/c++/v1/iterator:1339:14
	movq	-672(%rbp), %rax
	movq	-680(%rbp), %rcx
	movq	%rax, -656(%rbp)
	movq	%rcx, -664(%rbp)
	.loc	15 1287 0               ## /Applications/Xcode.app/Contents/Developer/Toolchains/XcodeDefault.xctoolchain/usr/bin/../include/c++/v1/iterator:1287:0
Ltmp364:
	movq	-656(%rbp), %rax
	movq	%rax, -648(%rbp)
	movq	-648(%rbp), %rax
	.loc	15 1211 0               ## /Applications/Xcode.app/Contents/Developer/Toolchains/XcodeDefault.xctoolchain/usr/bin/../include/c++/v1/iterator:1211:0
Ltmp365:
	movq	(%rax), %rax
Ltmp366:
	.loc	15 1287 0               ## /Applications/Xcode.app/Contents/Developer/Toolchains/XcodeDefault.xctoolchain/usr/bin/../include/c++/v1/iterator:1287:0
	movq	-664(%rbp), %rcx
	movq	%rcx, -640(%rbp)
	movq	-640(%rbp), %rcx
	cmpq	(%rcx), %rax
	sete	%sil
Ltmp367:
	.loc	15 1339 14              ## /Applications/Xcode.app/Contents/Developer/Toolchains/XcodeDefault.xctoolchain/usr/bin/../include/c++/v1/iterator:1339:14
	xorb	$1, %sil
Ltmp368:
	.loc	19 2579 16              ## /Applications/Xcode.app/Contents/Developer/Toolchains/XcodeDefault.xctoolchain/usr/bin/../include/c++/v1/algorithm:2579:16
	testb	$1, %sil
	jne	LBB0_101
	jmp	LBB0_104
LBB0_101:                               ##   in Loop: Header=BB0_100 Depth=1
	leaq	-784(%rbp), %rax
	movq	%rax, -688(%rbp)
	.loc	15 1155 0               ## /Applications/Xcode.app/Contents/Developer/Toolchains/XcodeDefault.xctoolchain/usr/bin/../include/c++/v1/iterator:1155:0
Ltmp369:
	movq	-784(%rbp), %rax
	leaq	-808(%rbp), %rcx
	movq	%rcx, -696(%rbp)
	movq	-808(%rbp), %rcx
	leaq	-800(%rbp), %rdx
	movq	%rdx, -704(%rbp)
	movq	%rax, -712(%rbp)
	movq	%rcx, -720(%rbp)
	.loc	19 685 0                ## /Applications/Xcode.app/Contents/Developer/Toolchains/XcodeDefault.xctoolchain/usr/bin/../include/c++/v1/algorithm:685:0
	movq	-712(%rbp), %rax
	fldt	(%rax)
	fldt	(%rcx)
Ltmp370:
	.loc	19 2580 0               ## /Applications/Xcode.app/Contents/Developer/Toolchains/XcodeDefault.xctoolchain/usr/bin/../include/c++/v1/algorithm:2580:0
	fucompi	%st(1)
	fstp	%st(0)
	jbe	LBB0_103
	jmp	LBB0_102
LBB0_102:                               ##   in Loop: Header=BB0_100 Depth=1
	.loc	19 2581 0               ## /Applications/Xcode.app/Contents/Developer/Toolchains/XcodeDefault.xctoolchain/usr/bin/../include/c++/v1/algorithm:2581:0
	movq	-808(%rbp), %rax
	movq	%rax, -784(%rbp)
LBB0_103:                               ##   in Loop: Header=BB0_100 Depth=1
	jmp	LBB0_100
LBB0_104:
	.loc	19 2582 0               ## /Applications/Xcode.app/Contents/Developer/Toolchains/XcodeDefault.xctoolchain/usr/bin/../include/c++/v1/algorithm:2582:0
	jmp	LBB0_105
LBB0_105:                               ## %_ZNSt3__111max_elementINS_11__wrap_iterIPeEEEET_S4_S4_.exit
	.loc	19 2583 0               ## /Applications/Xcode.app/Contents/Developer/Toolchains/XcodeDefault.xctoolchain/usr/bin/../include/c++/v1/algorithm:2583:0
	movq	-784(%rbp), %rax
	movq	%rax, -776(%rbp)
	movq	-776(%rbp), %rax
Ltmp371:
	.loc	19 2591 12              ## /Applications/Xcode.app/Contents/Developer/Toolchains/XcodeDefault.xctoolchain/usr/bin/../include/c++/v1/algorithm:2591:12
	movq	%rax, -816(%rbp)
	movq	-816(%rbp), %rax
	movq	%rax, -2952(%rbp)       ## 8-byte Spill
Ltmp372:
## BB#106:
	.loc	1 81 34                 ## main.cpp:81:34
	movq	-2952(%rbp), %rax       ## 8-byte Reload
	movq	%rax, -2328(%rbp)
	leaq	-2328(%rbp), %rcx
	movq	%rcx, -864(%rbp)
	.loc	15 1155 0               ## /Applications/Xcode.app/Contents/Developer/Toolchains/XcodeDefault.xctoolchain/usr/bin/../include/c++/v1/iterator:1155:0
Ltmp373:
	movq	-2328(%rbp), %rcx
Ltmp374:
	.loc	1 81 34                 ## main.cpp:81:34
	fldt	(%rcx)
	.loc	1 81 0                  ## main.cpp:81:0
Ltmp120:
	movq	%rsp, %rcx
	fstpt	(%rcx)
	movq	-2944(%rbp), %rdi       ## 8-byte Reload
	callq	__ZNSt3__113basic_ostreamIcNS_11char_traitsIcEEElsEe
Ltmp121:
	movq	%rax, -2960(%rbp)       ## 8-byte Spill
	jmp	LBB0_107
LBB0_107:
Ltmp122:
	leaq	L_.str17(%rip), %rsi
	movq	-2960(%rbp), %rdi       ## 8-byte Reload
	callq	__ZNSt3__1lsINS_11char_traitsIcEEEERNS_13basic_ostreamIcT_EES6_PKc
Ltmp123:
	movq	%rax, -2968(%rbp)       ## 8-byte Spill
	jmp	LBB0_108
LBB0_108:
	movq	-2968(%rbp), %rax       ## 8-byte Reload
	movq	%rax, -904(%rbp)
	leaq	__ZNSt3__14endlIcNS_11char_traitsIcEEEERNS_13basic_ostreamIT_T0_EES7_(%rip), %rcx
	movq	%rcx, -912(%rbp)
	movq	-904(%rbp), %rdi
Ltmp124:
	callq	*%rcx
Ltmp125:
	movq	%rax, -2976(%rbp)       ## 8-byte Spill
	jmp	LBB0_109
LBB0_109:                               ## %_ZNSt3__113basic_ostreamIcNS_11char_traitsIcEEElsEPFRS3_S4_E.exit5
	.loc	13 310 0                ## /Applications/Xcode.app/Contents/Developer/Toolchains/XcodeDefault.xctoolchain/usr/bin/../include/c++/v1/ostream:310:0
Ltmp375:
	jmp	LBB0_110
Ltmp376:
LBB0_110:
	.loc	1 83 0                  ## main.cpp:83:0
Ltmp126:
	movq	__ZNSt3__14coutE@GOTPCREL(%rip), %rdi
	leaq	L_.str19(%rip), %rsi
	callq	__ZNSt3__1lsINS_11char_traitsIcEEEERNS_13basic_ostreamIcT_EES6_PKc
Ltmp127:
	movq	%rax, -2984(%rbp)       ## 8-byte Spill
	jmp	LBB0_111
LBB0_111:
Ltmp128:
	callq	__Z21measure_pageFaultTimev
Ltmp129:
	fstpt	-2996(%rbp)             ## 10-byte Folded Spill
	jmp	LBB0_112
LBB0_112:
Ltmp130:
	movq	%rsp, %rax
	fldt	-2996(%rbp)             ## 10-byte Folded Reload
	fstpt	(%rax)
	movq	-2984(%rbp), %rdi       ## 8-byte Reload
	callq	__ZNSt3__113basic_ostreamIcNS_11char_traitsIcEEElsEe
Ltmp131:
	movq	%rax, -3008(%rbp)       ## 8-byte Spill
	jmp	LBB0_113
LBB0_113:
Ltmp132:
	leaq	L_.str2(%rip), %rsi
	movq	-3008(%rbp), %rdi       ## 8-byte Reload
	callq	__ZNSt3__1lsINS_11char_traitsIcEEEERNS_13basic_ostreamIcT_EES6_PKc
Ltmp133:
	movq	%rax, -3016(%rbp)       ## 8-byte Spill
	jmp	LBB0_114
LBB0_114:
	movq	-3016(%rbp), %rax       ## 8-byte Reload
	movq	%rax, -1128(%rbp)
	leaq	__ZNSt3__14endlIcNS_11char_traitsIcEEEERNS_13basic_ostreamIT_T0_EES7_(%rip), %rcx
	movq	%rcx, -1136(%rbp)
	movq	-1128(%rbp), %rdi
Ltmp134:
	callq	*%rcx
Ltmp135:
	movq	%rax, -3024(%rbp)       ## 8-byte Spill
	jmp	LBB0_115
LBB0_115:                               ## %_ZNSt3__113basic_ostreamIcNS_11char_traitsIcEEElsEPFRS3_S4_E.exit3
	.loc	13 310 0                ## /Applications/Xcode.app/Contents/Developer/Toolchains/XcodeDefault.xctoolchain/usr/bin/../include/c++/v1/ostream:310:0
Ltmp377:
	jmp	LBB0_116
Ltmp378:
LBB0_116:
	.loc	1 89 0                  ## main.cpp:89:0
Ltmp136:
	leaq	L_.str20(%rip), %rdi
	callq	_system
Ltmp137:
	movl	%eax, -3028(%rbp)       ## 4-byte Spill
	jmp	LBB0_117
LBB0_117:
Ltmp379:
	##DEBUG_VALUE: main:outFile <- [RBP+-2336]
	.loc	1 92 0                  ## main.cpp:92:0
Ltmp138:
	leaq	L_.str21(%rip), %rdi
	leaq	L_.str22(%rip), %rsi
	callq	_popen
Ltmp139:
	movq	%rax, -3040(%rbp)       ## 8-byte Spill
	jmp	LBB0_118
Ltmp380:
LBB0_118:
	movq	-3040(%rbp), %rax       ## 8-byte Reload
	movq	%rax, -2336(%rbp)
LBB0_119:                               ## =>This Inner Loop Header: Depth=1
	.loc	1 93 0                  ## main.cpp:93:0
	jmp	LBB0_120
LBB0_120:                               ##   in Loop: Header=BB0_119 Depth=1
Ltmp381:
	##DEBUG_VALUE: c <- [RBP+-2340]
	.loc	1 95 0                  ## main.cpp:95:0
	movq	-2336(%rbp), %rdi
Ltmp140:
	callq	_fgetc
Ltmp141:
	movl	%eax, -3044(%rbp)       ## 4-byte Spill
	jmp	LBB0_121
Ltmp382:
LBB0_121:                               ##   in Loop: Header=BB0_119 Depth=1
	movl	-3044(%rbp), %eax       ## 4-byte Reload
	movl	%eax, -2340(%rbp)
	.loc	1 96 0                  ## main.cpp:96:0
Ltmp383:
	cmpl	$-1, -2340(%rbp)
	jne	LBB0_125
## BB#122:
	.loc	1 97 0                  ## main.cpp:97:0
	jmp	LBB0_127
Ltmp384:
LBB0_123:
Ltmp117:
	.loc	1 106 0                 ## main.cpp:106:0
	movl	%edx, %ecx
	movq	%rax, -2000(%rbp)
	movl	%ecx, -2004(%rbp)
	jmp	LBB0_130
LBB0_124:
Ltmp148:
	leaq	-2304(%rbp), %rdi
	movl	%edx, %ecx
	movq	%rax, -2000(%rbp)
	movl	%ecx, -2004(%rbp)
	callq	__ZNSt3__16vectorIeNS_9allocatorIeEEED1Ev
	jmp	LBB0_130
LBB0_125:                               ##   in Loop: Header=BB0_119 Depth=1
	.loc	1 98 0                  ## main.cpp:98:0
Ltmp385:
	movsbl	-2340(%rbp), %esi
Ltmp142:
	movq	__ZNSt3__14coutE@GOTPCREL(%rip), %rdi
	callq	__ZNSt3__1lsINS_11char_traitsIcEEEERNS_13basic_ostreamIcT_EES6_c
Ltmp143:
	movq	%rax, -3056(%rbp)       ## 8-byte Spill
	jmp	LBB0_126
LBB0_126:                               ##   in Loop: Header=BB0_119 Depth=1
	.loc	1 99 0                  ## main.cpp:99:0
	jmp	LBB0_119
Ltmp386:
LBB0_127:
	.loc	1 100 0                 ## main.cpp:100:0
	movq	-2336(%rbp), %rdi
Ltmp144:
	callq	_fclose
Ltmp145:
	movl	%eax, -3060(%rbp)       ## 4-byte Spill
	jmp	LBB0_128
LBB0_128:
	.loc	1 103 0                 ## main.cpp:103:0
Ltmp146:
	leaq	L_.str23(%rip), %rdi
	callq	_system
Ltmp147:
	movl	%eax, -3064(%rbp)       ## 4-byte Spill
	jmp	LBB0_129
LBB0_129:
	leaq	-2304(%rbp), %rdi
	.loc	1 105 0                 ## main.cpp:105:0
	movl	$0, -1892(%rbp)
	movl	$1, -2344(%rbp)
	callq	__ZNSt3__16vectorIeNS_9allocatorIeEEED1Ev
	leaq	-2256(%rbp), %rdi
	callq	__ZNSt3__16vectorIeNS_9allocatorIeEEED1Ev
	leaq	-2072(%rbp), %rdi
	callq	__ZNSt3__16vectorIeNS_9allocatorIeEEED1Ev
	leaq	-1976(%rbp), %rdi
	callq	__ZNSt3__16vectorIeNS_9allocatorIeEEED1Ev
	.loc	1 106 0                 ## main.cpp:106:0
	movl	-1892(%rbp), %eax
	addq	$3088, %rsp             ## imm = 0xC10
	popq	%rbp
	retq
LBB0_130:
	leaq	-2256(%rbp), %rdi
	callq	__ZNSt3__16vectorIeNS_9allocatorIeEEED1Ev
LBB0_131:
	leaq	-2072(%rbp), %rdi
	callq	__ZNSt3__16vectorIeNS_9allocatorIeEEED1Ev
LBB0_132:
	leaq	-1976(%rbp), %rdi
	callq	__ZNSt3__16vectorIeNS_9allocatorIeEEED1Ev
## BB#133:
	movq	-2000(%rbp), %rdi
	callq	__Unwind_Resume
Ltmp387:
Lfunc_end0:
	.file	26 "./headers.h"
	.cfi_endproc
Leh_func_end0:
	.section	__TEXT,__gcc_except_tab
	.align	2
GCC_except_table0:
Lexception0:
	.byte	255                     ## @LPStart Encoding = omit
	.byte	155                     ## @TType Encoding = indirect pcrel sdata4
	.asciz	"\320"                  ## @TType base offset
	.byte	3                       ## Call site Encoding = udata4
	.byte	78                      ## Call site table length
Lset0 = Leh_func_begin0-Leh_func_begin0 ## >> Call Site 1 <<
	.long	Lset0
Lset1 = Ltmp0-Leh_func_begin0           ##   Call between Leh_func_begin0 and Ltmp0
	.long	Lset1
	.long	0                       ##     has no landing pad
	.byte	0                       ##   On action: cleanup
Lset2 = Ltmp0-Leh_func_begin0           ## >> Call Site 2 <<
	.long	Lset2
Lset3 = Ltmp37-Ltmp0                    ##   Call between Ltmp0 and Ltmp37
	.long	Lset3
Lset4 = Ltmp38-Leh_func_begin0          ##     jumps to Ltmp38
	.long	Lset4
	.byte	0                       ##   On action: cleanup
Lset5 = Ltmp39-Leh_func_begin0          ## >> Call Site 3 <<
	.long	Lset5
Lset6 = Ltmp106-Ltmp39                  ##   Call between Ltmp39 and Ltmp106
	.long	Lset6
Lset7 = Ltmp161-Leh_func_begin0         ##     jumps to Ltmp161
	.long	Lset7
	.byte	0                       ##   On action: cleanup
Lset8 = Ltmp107-Leh_func_begin0         ## >> Call Site 4 <<
	.long	Lset8
Lset9 = Ltmp116-Ltmp107                 ##   Call between Ltmp107 and Ltmp116
	.long	Lset9
Lset10 = Ltmp117-Leh_func_begin0        ##     jumps to Ltmp117
	.long	Lset10
	.byte	0                       ##   On action: cleanup
Lset11 = Ltmp118-Leh_func_begin0        ## >> Call Site 5 <<
	.long	Lset11
Lset12 = Ltmp147-Ltmp118                ##   Call between Ltmp118 and Ltmp147
	.long	Lset12
Lset13 = Ltmp148-Leh_func_begin0        ##     jumps to Ltmp148
	.long	Lset13
	.byte	0                       ##   On action: cleanup
Lset14 = Ltmp147-Leh_func_begin0        ## >> Call Site 6 <<
	.long	Lset14
Lset15 = Leh_func_end0-Ltmp147          ##   Call between Ltmp147 and Leh_func_end0
	.long	Lset15
	.long	0                       ##     has no landing pad
	.byte	0                       ##   On action: cleanup
	.align	2

	.section	__TEXT,__textcoal_nt,coalesced,pure_instructions
	.globl	__ZNSt3__1lsINS_11char_traitsIcEEEERNS_13basic_ostreamIcT_EES6_PKc
	.weak_def_can_be_hidden	__ZNSt3__1lsINS_11char_traitsIcEEEERNS_13basic_ostreamIcT_EES6_PKc
	.align	4, 0x90
__ZNSt3__1lsINS_11char_traitsIcEEEERNS_13basic_ostreamIcT_EES6_PKc: ## @_ZNSt3__1lsINS_11char_traitsIcEEEERNS_13basic_ostreamIcT_EES6_PKc
Lfunc_begin1:
	.loc	13 881 0                ## /Applications/Xcode.app/Contents/Developer/Toolchains/XcodeDefault.xctoolchain/usr/bin/../include/c++/v1/ostream:881:0
	.cfi_startproc
## BB#0:
	pushq	%rbp
Ltmp390:
	.cfi_def_cfa_offset 16
Ltmp391:
	.cfi_offset %rbp, -16
	movq	%rsp, %rbp
Ltmp392:
	.cfi_def_cfa_register %rbp
	subq	$48, %rsp
	movq	%rdi, -16(%rbp)
	movq	%rsi, -24(%rbp)
	.loc	13 882 0 prologue_end   ## /Applications/Xcode.app/Contents/Developer/Toolchains/XcodeDefault.xctoolchain/usr/bin/../include/c++/v1/ostream:882:0
Ltmp393:
	movq	-16(%rbp), %rdi
	movq	-24(%rbp), %rsi
	movq	-24(%rbp), %rax
	movq	%rax, -8(%rbp)
	.loc	6 651 0                 ## /Applications/Xcode.app/Contents/Developer/Toolchains/XcodeDefault.xctoolchain/usr/bin/../include/c++/v1/string:651:0
Ltmp394:
	movq	-8(%rbp), %rax
	movq	%rdi, -32(%rbp)         ## 8-byte Spill
	movq	%rax, %rdi
	movq	%rsi, -40(%rbp)         ## 8-byte Spill
	callq	_strlen
Ltmp395:
	.loc	13 882 0                ## /Applications/Xcode.app/Contents/Developer/Toolchains/XcodeDefault.xctoolchain/usr/bin/../include/c++/v1/ostream:882:0
	movq	-32(%rbp), %rdi         ## 8-byte Reload
	movq	-40(%rbp), %rsi         ## 8-byte Reload
	movq	%rax, %rdx
	callq	__ZNSt3__124__put_character_sequenceIcNS_11char_traitsIcEEEERNS_13basic_ostreamIT_T0_EES7_PKS4_m
	addq	$48, %rsp
	popq	%rbp
	retq
Ltmp396:
Lfunc_end1:
	.cfi_endproc

	.private_extern	__ZNSt3__14endlIcNS_11char_traitsIcEEEERNS_13basic_ostreamIT_T0_EES7_
	.globl	__ZNSt3__14endlIcNS_11char_traitsIcEEEERNS_13basic_ostreamIT_T0_EES7_
	.weak_definition	__ZNSt3__14endlIcNS_11char_traitsIcEEEERNS_13basic_ostreamIT_T0_EES7_
	.align	4, 0x90
__ZNSt3__14endlIcNS_11char_traitsIcEEEERNS_13basic_ostreamIT_T0_EES7_: ## @_ZNSt3__14endlIcNS_11char_traitsIcEEEERNS_13basic_ostreamIT_T0_EES7_
Lfunc_begin2:
	.loc	13 1021 0               ## /Applications/Xcode.app/Contents/Developer/Toolchains/XcodeDefault.xctoolchain/usr/bin/../include/c++/v1/ostream:1021:0
	.cfi_startproc
	.cfi_personality 155, ___gxx_personality_v0
Leh_func_begin2:
	.cfi_lsda 16, Lexception2
## BB#0:
	pushq	%rbp
Ltmp404:
	.cfi_def_cfa_offset 16
Ltmp405:
	.cfi_offset %rbp, -16
	movq	%rsp, %rbp
Ltmp406:
	.cfi_def_cfa_register %rbp
	subq	$144, %rsp
	##DEBUG_VALUE: endl<char, std::__1::char_traits<char> >:__os <- undef
Ltmp407:
	##DEBUG_VALUE: widen:this <- undef
	##DEBUG_VALUE: widen:__c <- undef
	##DEBUG_VALUE: use_facet<std::__1::ctype<char> >:__l <- undef
	movq	%rdi, -72(%rbp)
	.loc	13 1022 0 prologue_end  ## /Applications/Xcode.app/Contents/Developer/Toolchains/XcodeDefault.xctoolchain/usr/bin/../include/c++/v1/ostream:1022:0
Ltmp408:
	movq	%rdi, %rax
	movq	(%rdi), %rcx
	movq	-24(%rcx), %rcx
	addq	%rcx, %rdi
	movq	%rdi, -32(%rbp)
	movb	$10, -33(%rbp)
	movq	-32(%rbp), %rsi
	leaq	-48(%rbp), %rcx
	.loc	3 734 0                 ## /Applications/Xcode.app/Contents/Developer/Toolchains/XcodeDefault.xctoolchain/usr/bin/../include/c++/v1/ios:734:0
Ltmp409:
	movq	%rcx, %rdi
	movq	%rax, -80(%rbp)         ## 8-byte Spill
	movq	%rcx, -88(%rbp)         ## 8-byte Spill
	callq	__ZNKSt3__18ios_base6getlocEv
	movq	-88(%rbp), %rax         ## 8-byte Reload
	movq	%rax, -24(%rbp)
Ltmp397:
	movq	__ZNSt3__15ctypeIcE2idE@GOTPCREL(%rip), %rsi
	movq	%rax, %rdi
	callq	__ZNKSt3__16locale9use_facetERNS0_2idE
Ltmp398:
	movq	%rax, -96(%rbp)         ## 8-byte Spill
	jmp	LBB2_1
LBB2_1:                                 ## %_ZNSt3__19use_facetINS_5ctypeIcEEEERKT_RKNS_6localeE.exit.i
	movb	-33(%rbp), %al
	movq	-96(%rbp), %rcx         ## 8-byte Reload
	movq	%rcx, -8(%rbp)
	movb	%al, -9(%rbp)
	movq	-8(%rbp), %rdx
	.loc	5 571 0                 ## /Applications/Xcode.app/Contents/Developer/Toolchains/XcodeDefault.xctoolchain/usr/bin/../include/c++/v1/__locale:571:0
Ltmp410:
	movq	(%rdx), %rsi
	movq	56(%rsi), %rsi
	movsbl	-9(%rbp), %edi
Ltmp399:
	movl	%edi, -100(%rbp)        ## 4-byte Spill
	movq	%rdx, %rdi
	movl	-100(%rbp), %r8d        ## 4-byte Reload
	movq	%rsi, -112(%rbp)        ## 8-byte Spill
	movl	%r8d, %esi
	movq	-112(%rbp), %rdx        ## 8-byte Reload
	callq	*%rdx
Ltmp400:
	movb	%al, -113(%rbp)         ## 1-byte Spill
	jmp	LBB2_3
Ltmp411:
LBB2_2:
Ltmp401:
	leaq	-48(%rbp), %rdi
	.loc	3 735 0                 ## /Applications/Xcode.app/Contents/Developer/Toolchains/XcodeDefault.xctoolchain/usr/bin/../include/c++/v1/ios:735:0
	movl	%edx, %ecx
	movq	%rax, -56(%rbp)
	movl	%ecx, -60(%rbp)
	callq	__ZNSt3__16localeD1Ev
	movq	-56(%rbp), %rdi
	callq	__Unwind_Resume
LBB2_3:                                 ## %_ZNKSt3__19basic_iosIcNS_11char_traitsIcEEE5widenEc.exit
	leaq	-48(%rbp), %rdi
	.loc	3 734 0                 ## /Applications/Xcode.app/Contents/Developer/Toolchains/XcodeDefault.xctoolchain/usr/bin/../include/c++/v1/ios:734:0
	callq	__ZNSt3__16localeD1Ev
Ltmp412:
	.loc	13 1022 0               ## /Applications/Xcode.app/Contents/Developer/Toolchains/XcodeDefault.xctoolchain/usr/bin/../include/c++/v1/ostream:1022:0
	movq	-80(%rbp), %rdi         ## 8-byte Reload
	movb	-113(%rbp), %al         ## 1-byte Reload
	movsbl	%al, %esi
	callq	__ZNSt3__113basic_ostreamIcNS_11char_traitsIcEEE3putEc
	.loc	13 1023 0               ## /Applications/Xcode.app/Contents/Developer/Toolchains/XcodeDefault.xctoolchain/usr/bin/../include/c++/v1/ostream:1023:0
	movq	-72(%rbp), %rdi
	movq	%rax, -128(%rbp)        ## 8-byte Spill
	callq	__ZNSt3__113basic_ostreamIcNS_11char_traitsIcEEE5flushEv
	.loc	13 1024 0               ## /Applications/Xcode.app/Contents/Developer/Toolchains/XcodeDefault.xctoolchain/usr/bin/../include/c++/v1/ostream:1024:0
	movq	-72(%rbp), %rdi
	movq	%rax, -136(%rbp)        ## 8-byte Spill
	movq	%rdi, %rax
	addq	$144, %rsp
	popq	%rbp
	retq
Ltmp413:
Lfunc_end2:
	.cfi_endproc
Leh_func_end2:
	.section	__TEXT,__gcc_except_tab
	.align	2
GCC_except_table2:
Lexception2:
	.byte	255                     ## @LPStart Encoding = omit
	.byte	155                     ## @TType Encoding = indirect pcrel sdata4
	.byte	41                      ## @TType base offset
	.byte	3                       ## Call site Encoding = udata4
	.byte	39                      ## Call site table length
Lset16 = Leh_func_begin2-Leh_func_begin2 ## >> Call Site 1 <<
	.long	Lset16
Lset17 = Ltmp397-Leh_func_begin2        ##   Call between Leh_func_begin2 and Ltmp397
	.long	Lset17
	.long	0                       ##     has no landing pad
	.byte	0                       ##   On action: cleanup
Lset18 = Ltmp397-Leh_func_begin2        ## >> Call Site 2 <<
	.long	Lset18
Lset19 = Ltmp400-Ltmp397                ##   Call between Ltmp397 and Ltmp400
	.long	Lset19
Lset20 = Ltmp401-Leh_func_begin2        ##     jumps to Ltmp401
	.long	Lset20
	.byte	0                       ##   On action: cleanup
Lset21 = Ltmp400-Leh_func_begin2        ## >> Call Site 3 <<
	.long	Lset21
Lset22 = Leh_func_end2-Ltmp400          ##   Call between Ltmp400 and Leh_func_end2
	.long	Lset22
	.long	0                       ##     has no landing pad
	.byte	0                       ##   On action: cleanup
	.align	2

	.section	__TEXT,__textcoal_nt,coalesced,pure_instructions
	.globl	__ZNSt3__16vectorINS0_IeNS_9allocatorIeEEEENS1_IS3_EEED1Ev
	.weak_def_can_be_hidden	__ZNSt3__16vectorINS0_IeNS_9allocatorIeEEEENS1_IS3_EEED1Ev
	.align	4, 0x90
__ZNSt3__16vectorINS0_IeNS_9allocatorIeEEEENS1_IS3_EEED1Ev: ## @_ZNSt3__16vectorINS0_IeNS_9allocatorIeEEEENS1_IS3_EEED1Ev
Lfunc_begin3:
	.loc	20 481 0                ## /Applications/Xcode.app/Contents/Developer/Toolchains/XcodeDefault.xctoolchain/usr/bin/../include/c++/v1/vector:481:0
	.cfi_startproc
## BB#0:
	pushq	%rbp
Ltmp416:
	.cfi_def_cfa_offset 16
Ltmp417:
	.cfi_offset %rbp, -16
	movq	%rsp, %rbp
Ltmp418:
	.cfi_def_cfa_register %rbp
	subq	$16, %rsp
	movq	%rdi, -8(%rbp)
	movq	-8(%rbp), %rdi
	.loc	20 481 0 prologue_end   ## /Applications/Xcode.app/Contents/Developer/Toolchains/XcodeDefault.xctoolchain/usr/bin/../include/c++/v1/vector:481:0
Ltmp419:
	callq	__ZNSt3__16vectorINS0_IeNS_9allocatorIeEEEENS1_IS3_EEED2Ev
	addq	$16, %rsp
	popq	%rbp
	retq
Ltmp420:
Lfunc_end3:
	.cfi_endproc

	.globl	__ZNSt3__1lsINS_11char_traitsIcEEEERNS_13basic_ostreamIcT_EES6_c
	.weak_def_can_be_hidden	__ZNSt3__1lsINS_11char_traitsIcEEEERNS_13basic_ostreamIcT_EES6_c
	.align	4, 0x90
__ZNSt3__1lsINS_11char_traitsIcEEEERNS_13basic_ostreamIcT_EES6_c: ## @_ZNSt3__1lsINS_11char_traitsIcEEEERNS_13basic_ostreamIcT_EES6_c
Lfunc_begin4:
	.loc	13 807 0                ## /Applications/Xcode.app/Contents/Developer/Toolchains/XcodeDefault.xctoolchain/usr/bin/../include/c++/v1/ostream:807:0
	.cfi_startproc
## BB#0:
	pushq	%rbp
Ltmp423:
	.cfi_def_cfa_offset 16
Ltmp424:
	.cfi_offset %rbp, -16
	movq	%rsp, %rbp
Ltmp425:
	.cfi_def_cfa_register %rbp
	subq	$16, %rsp
	movb	%sil, %al
	leaq	-9(%rbp), %rsi
	movabsq	$1, %rdx
	movq	%rdi, -8(%rbp)
	movb	%al, -9(%rbp)
	##DEBUG_VALUE: operator<<<std::__1::char_traits<char> >:__c <- RSI
	.loc	13 808 0 prologue_end   ## /Applications/Xcode.app/Contents/Developer/Toolchains/XcodeDefault.xctoolchain/usr/bin/../include/c++/v1/ostream:808:0
Ltmp426:
	movq	-8(%rbp), %rdi
	callq	__ZNSt3__124__put_character_sequenceIcNS_11char_traitsIcEEEERNS_13basic_ostreamIT_T0_EES7_PKS4_m
	addq	$16, %rsp
	popq	%rbp
	retq
Ltmp427:
Lfunc_end4:
	.cfi_endproc

	.globl	__ZNSt3__16vectorIeNS_9allocatorIeEEED1Ev
	.weak_def_can_be_hidden	__ZNSt3__16vectorIeNS_9allocatorIeEEED1Ev
	.align	4, 0x90
__ZNSt3__16vectorIeNS_9allocatorIeEEED1Ev: ## @_ZNSt3__16vectorIeNS_9allocatorIeEEED1Ev
Lfunc_begin5:
	.loc	20 481 0                ## /Applications/Xcode.app/Contents/Developer/Toolchains/XcodeDefault.xctoolchain/usr/bin/../include/c++/v1/vector:481:0
	.cfi_startproc
## BB#0:
	pushq	%rbp
Ltmp430:
	.cfi_def_cfa_offset 16
Ltmp431:
	.cfi_offset %rbp, -16
	movq	%rsp, %rbp
Ltmp432:
	.cfi_def_cfa_register %rbp
	subq	$16, %rsp
	movq	%rdi, -8(%rbp)
	movq	-8(%rbp), %rdi
	.loc	20 481 0 prologue_end   ## /Applications/Xcode.app/Contents/Developer/Toolchains/XcodeDefault.xctoolchain/usr/bin/../include/c++/v1/vector:481:0
Ltmp433:
	callq	__ZNSt3__16vectorIeNS_9allocatorIeEEED2Ev
	addq	$16, %rsp
	popq	%rbp
	retq
Ltmp434:
Lfunc_end5:
	.cfi_endproc

	.globl	__ZNSt3__124__put_character_sequenceIcNS_11char_traitsIcEEEERNS_13basic_ostreamIT_T0_EES7_PKS4_m
	.weak_def_can_be_hidden	__ZNSt3__124__put_character_sequenceIcNS_11char_traitsIcEEEERNS_13basic_ostreamIT_T0_EES7_PKS4_m
	.align	4, 0x90
__ZNSt3__124__put_character_sequenceIcNS_11char_traitsIcEEEERNS_13basic_ostreamIT_T0_EES7_PKS4_m: ## @_ZNSt3__124__put_character_sequenceIcNS_11char_traitsIcEEEERNS_13basic_ostreamIT_T0_EES7_PKS4_m
Lfunc_begin6:
	.loc	13 734 0                ## /Applications/Xcode.app/Contents/Developer/Toolchains/XcodeDefault.xctoolchain/usr/bin/../include/c++/v1/ostream:734:0
	.cfi_startproc
	.cfi_personality 155, ___gxx_personality_v0
Leh_func_begin6:
	.cfi_lsda 16, Lexception6
## BB#0:
	pushq	%rbp
Ltmp458:
	.cfi_def_cfa_offset 16
Ltmp459:
	.cfi_offset %rbp, -16
	movq	%rsp, %rbp
Ltmp460:
	.cfi_def_cfa_register %rbp
	subq	$400, %rsp              ## imm = 0x190
	##DEBUG_VALUE: __put_character_sequence<char, std::__1::char_traits<char> >:__os <- undef
	##DEBUG_VALUE: __put_character_sequence<char, std::__1::char_traits<char> >:__str <- undef
	##DEBUG_VALUE: __put_character_sequence<char, std::__1::char_traits<char> >:__len <- undef
	movq	%rdi, -192(%rbp)
	movq	%rsi, -200(%rbp)
	movq	%rdx, -208(%rbp)
	.loc	13 739 0 prologue_end   ## /Applications/Xcode.app/Contents/Developer/Toolchains/XcodeDefault.xctoolchain/usr/bin/../include/c++/v1/ostream:739:0
Ltmp461:
	movq	-192(%rbp), %rsi
Ltmp435:
	leaq	-224(%rbp), %rdi
	callq	__ZNSt3__113basic_ostreamIcNS_11char_traitsIcEEE6sentryC1ERS3_
Ltmp436:
	jmp	LBB6_1
LBB6_1:
	leaq	-224(%rbp), %rax
	movq	%rax, -184(%rbp)
	movq	-184(%rbp), %rax
	.loc	13 228 0                ## /Applications/Xcode.app/Contents/Developer/Toolchains/XcodeDefault.xctoolchain/usr/bin/../include/c++/v1/ostream:228:0
Ltmp462:
	movb	(%rax), %cl
	movb	%cl, -257(%rbp)         ## 1-byte Spill
Ltmp463:
## BB#2:
	.loc	13 740 0                ## /Applications/Xcode.app/Contents/Developer/Toolchains/XcodeDefault.xctoolchain/usr/bin/../include/c++/v1/ostream:740:0
	movb	-257(%rbp), %al         ## 1-byte Reload
	testb	$1, %al
	jne	LBB6_3
	jmp	LBB6_26
LBB6_3:
	leaq	-248(%rbp), %rax
	.loc	13 743 0                ## /Applications/Xcode.app/Contents/Developer/Toolchains/XcodeDefault.xctoolchain/usr/bin/../include/c++/v1/ostream:743:0
Ltmp464:
	movq	-192(%rbp), %rcx
	movq	%rax, -168(%rbp)
	movq	%rcx, -176(%rbp)
	movq	-168(%rbp), %rax
	.loc	15 889 0                ## /Applications/Xcode.app/Contents/Developer/Toolchains/XcodeDefault.xctoolchain/usr/bin/../include/c++/v1/iterator:889:0
Ltmp465:
	movq	-176(%rbp), %rcx
	movq	%rax, -152(%rbp)
	movq	%rcx, -160(%rbp)
	movq	-152(%rbp), %rax
	.loc	15 889 0                ## /Applications/Xcode.app/Contents/Developer/Toolchains/XcodeDefault.xctoolchain/usr/bin/../include/c++/v1/iterator:889:0
Ltmp466:
	movq	-160(%rbp), %rcx
	movq	(%rcx), %rdx
	movq	-24(%rdx), %rdx
	addq	%rdx, %rcx
	movq	%rcx, -144(%rbp)
	movq	-144(%rbp), %rcx
	movq	%rcx, -136(%rbp)
	movq	-136(%rbp), %rcx
	.loc	3 337 0                 ## /Applications/Xcode.app/Contents/Developer/Toolchains/XcodeDefault.xctoolchain/usr/bin/../include/c++/v1/ios:337:0
Ltmp467:
	movq	40(%rcx), %rcx
Ltmp468:
	.loc	15 889 0                ## /Applications/Xcode.app/Contents/Developer/Toolchains/XcodeDefault.xctoolchain/usr/bin/../include/c++/v1/iterator:889:0
	movq	%rcx, (%rax)
Ltmp469:
	.loc	13 743 0                ## /Applications/Xcode.app/Contents/Developer/Toolchains/XcodeDefault.xctoolchain/usr/bin/../include/c++/v1/ostream:743:0
	movq	-200(%rbp), %rsi
	.loc	13 745 35               ## /Applications/Xcode.app/Contents/Developer/Toolchains/XcodeDefault.xctoolchain/usr/bin/../include/c++/v1/ostream:745:35
	movq	-192(%rbp), %rax
	movq	(%rax), %rcx
	movq	-24(%rcx), %rcx
	addq	%rcx, %rax
	movq	%rax, -96(%rbp)
	movq	-96(%rbp), %rax
	.loc	3 437 0                 ## /Applications/Xcode.app/Contents/Developer/Toolchains/XcodeDefault.xctoolchain/usr/bin/../include/c++/v1/ios:437:0
Ltmp470:
	movl	8(%rax), %edi
	movq	%rsi, -272(%rbp)        ## 8-byte Spill
	movl	%edi, -276(%rbp)        ## 4-byte Spill
Ltmp471:
## BB#4:
	.loc	13 745 35               ## /Applications/Xcode.app/Contents/Developer/Toolchains/XcodeDefault.xctoolchain/usr/bin/../include/c++/v1/ostream:745:35
	movl	-276(%rbp), %eax        ## 4-byte Reload
	andl	$176, %eax
	cmpl	$32, %eax
	jne	LBB6_6
## BB#5:
	movq	-200(%rbp), %rax
	addq	-208(%rbp), %rax
	movq	%rax, -288(%rbp)        ## 8-byte Spill
	jmp	LBB6_7
LBB6_6:
	movq	-200(%rbp), %rax
	movq	%rax, -288(%rbp)        ## 8-byte Spill
LBB6_7:
	movq	-288(%rbp), %rax        ## 8-byte Reload
	.loc	13 743 0                ## /Applications/Xcode.app/Contents/Developer/Toolchains/XcodeDefault.xctoolchain/usr/bin/../include/c++/v1/ostream:743:0
	movq	-200(%rbp), %rcx
	addq	-208(%rbp), %rcx
	movq	-192(%rbp), %rdx
	movq	(%rdx), %rsi
	movq	-24(%rsi), %rsi
	addq	%rsi, %rdx
	.loc	13 750 0                ## /Applications/Xcode.app/Contents/Developer/Toolchains/XcodeDefault.xctoolchain/usr/bin/../include/c++/v1/ostream:750:0
	movq	-192(%rbp), %rsi
	movq	(%rsi), %rdi
	movq	-24(%rdi), %rdi
	addq	%rdi, %rsi
	movq	%rsi, -80(%rbp)
	movq	-80(%rbp), %rsi
	.loc	3 742 0                 ## /Applications/Xcode.app/Contents/Developer/Toolchains/XcodeDefault.xctoolchain/usr/bin/../include/c++/v1/ios:742:0
Ltmp472:
	movl	144(%rsi), %r8d
	movl	$-1, -4(%rbp)
	movl	%r8d, -8(%rbp)
	.loc	6 679 0                 ## /Applications/Xcode.app/Contents/Developer/Toolchains/XcodeDefault.xctoolchain/usr/bin/../include/c++/v1/string:679:0
Ltmp473:
	movl	-4(%rbp), %r8d
Ltmp474:
	.loc	3 742 0                 ## /Applications/Xcode.app/Contents/Developer/Toolchains/XcodeDefault.xctoolchain/usr/bin/../include/c++/v1/ios:742:0
	cmpl	-8(%rbp), %r8d
	movq	%rax, -296(%rbp)        ## 8-byte Spill
	movq	%rcx, -304(%rbp)        ## 8-byte Spill
	movq	%rdx, -312(%rbp)        ## 8-byte Spill
	movq	%rsi, -320(%rbp)        ## 8-byte Spill
	jne	LBB6_13
## BB#8:
	movq	-320(%rbp), %rax        ## 8-byte Reload
	movq	%rax, -40(%rbp)
	movb	$32, -41(%rbp)
	movq	-40(%rbp), %rsi
Ltmp438:
	leaq	-56(%rbp), %rdi
	callq	__ZNKSt3__18ios_base6getlocEv
Ltmp439:
	jmp	LBB6_9
LBB6_9:                                 ## %.noexc
	leaq	-56(%rbp), %rax
	movq	%rax, -32(%rbp)
Ltmp440:
	movq	__ZNSt3__15ctypeIcE2idE@GOTPCREL(%rip), %rsi
	movq	%rax, %rdi
	callq	__ZNKSt3__16locale9use_facetERNS0_2idE
Ltmp441:
	movq	%rax, -328(%rbp)        ## 8-byte Spill
	jmp	LBB6_10
LBB6_10:                                ## %_ZNSt3__19use_facetINS_5ctypeIcEEEERKT_RKNS_6localeE.exit.i.i
	.loc	3 734 0                 ## /Applications/Xcode.app/Contents/Developer/Toolchains/XcodeDefault.xctoolchain/usr/bin/../include/c++/v1/ios:734:0
Ltmp475:
	movb	-41(%rbp), %al
	movq	-328(%rbp), %rcx        ## 8-byte Reload
	movq	%rcx, -16(%rbp)
	movb	%al, -17(%rbp)
	movq	-16(%rbp), %rdx
	.loc	5 571 0                 ## /Applications/Xcode.app/Contents/Developer/Toolchains/XcodeDefault.xctoolchain/usr/bin/../include/c++/v1/__locale:571:0
Ltmp476:
	movq	(%rdx), %rsi
	movq	56(%rsi), %rsi
	movsbl	-17(%rbp), %edi
Ltmp442:
	movl	%edi, -332(%rbp)        ## 4-byte Spill
	movq	%rdx, %rdi
	movl	-332(%rbp), %r8d        ## 4-byte Reload
	movq	%rsi, -344(%rbp)        ## 8-byte Spill
	movl	%r8d, %esi
	movq	-344(%rbp), %rdx        ## 8-byte Reload
	callq	*%rdx
Ltmp443:
	movb	%al, -345(%rbp)         ## 1-byte Spill
	jmp	LBB6_12
Ltmp477:
LBB6_11:
Ltmp444:
	.loc	3 735 0                 ## /Applications/Xcode.app/Contents/Developer/Toolchains/XcodeDefault.xctoolchain/usr/bin/../include/c++/v1/ios:735:0
	movl	%edx, %ecx
	movq	%rax, -64(%rbp)
	movl	%ecx, -68(%rbp)
	leaq	-56(%rbp), %rdi
	callq	__ZNSt3__16localeD1Ev
	movq	-64(%rbp), %rax
	movl	-68(%rbp), %ecx
	movq	%rax, -360(%rbp)        ## 8-byte Spill
	movl	%ecx, -364(%rbp)        ## 4-byte Spill
	jmp	LBB6_21
LBB6_12:                                ## %_ZNKSt3__19basic_iosIcNS_11char_traitsIcEEE5widenEc.exit.i
	leaq	-56(%rbp), %rdi
	.loc	3 734 0                 ## /Applications/Xcode.app/Contents/Developer/Toolchains/XcodeDefault.xctoolchain/usr/bin/../include/c++/v1/ios:734:0
	callq	__ZNSt3__16localeD1Ev
Ltmp478:
	.loc	3 743 0                 ## /Applications/Xcode.app/Contents/Developer/Toolchains/XcodeDefault.xctoolchain/usr/bin/../include/c++/v1/ios:743:0
	movb	-345(%rbp), %al         ## 1-byte Reload
	movsbl	%al, %ecx
	movq	-320(%rbp), %rdi        ## 8-byte Reload
	movl	%ecx, 144(%rdi)
LBB6_13:                                ## %_ZNKSt3__19basic_iosIcNS_11char_traitsIcEEE4fillEv.exit
	.loc	3 744 0                 ## /Applications/Xcode.app/Contents/Developer/Toolchains/XcodeDefault.xctoolchain/usr/bin/../include/c++/v1/ios:744:0
	movq	-320(%rbp), %rax        ## 8-byte Reload
	movl	144(%rax), %ecx
	movb	%cl, %dl
	movb	%dl, -365(%rbp)         ## 1-byte Spill
Ltmp479:
## BB#14:
	.loc	13 743 0                ## /Applications/Xcode.app/Contents/Developer/Toolchains/XcodeDefault.xctoolchain/usr/bin/../include/c++/v1/ostream:743:0
	movq	-248(%rbp), %rdi
Ltmp445:
	movb	-365(%rbp), %al         ## 1-byte Reload
	movsbl	%al, %r9d
	movq	-272(%rbp), %rsi        ## 8-byte Reload
	movq	-296(%rbp), %rdx        ## 8-byte Reload
	movq	-304(%rbp), %rcx        ## 8-byte Reload
	movq	-312(%rbp), %r8         ## 8-byte Reload
	callq	__ZNSt3__116__pad_and_outputIcNS_11char_traitsIcEEEENS_19ostreambuf_iteratorIT_T0_EES6_PKS4_S8_S8_RNS_8ios_baseES4_
Ltmp446:
	movq	%rax, -376(%rbp)        ## 8-byte Spill
	jmp	LBB6_15
LBB6_15:
	leaq	-256(%rbp), %rax
	movq	-376(%rbp), %rcx        ## 8-byte Reload
	movq	%rcx, -256(%rbp)
	movq	%rax, -88(%rbp)
	movq	-88(%rbp), %rax
	cmpq	$0, (%rax)
	jne	LBB6_25
## BB#16:
	.loc	13 751 0                ## /Applications/Xcode.app/Contents/Developer/Toolchains/XcodeDefault.xctoolchain/usr/bin/../include/c++/v1/ostream:751:0
	movq	-192(%rbp), %rax
	movq	(%rax), %rcx
	movq	-24(%rcx), %rcx
	addq	%rcx, %rax
	movq	%rax, -120(%rbp)
	movl	$5, -124(%rbp)
	movq	-120(%rbp), %rax
	movq	%rax, -104(%rbp)
	movl	$5, -108(%rbp)
	movq	-104(%rbp), %rax
	.loc	3 524 0                 ## /Applications/Xcode.app/Contents/Developer/Toolchains/XcodeDefault.xctoolchain/usr/bin/../include/c++/v1/ios:524:0
Ltmp480:
	movl	32(%rax), %edx
	orl	$5, %edx
Ltmp447:
	movq	%rax, %rdi
	movl	%edx, %esi
	callq	__ZNSt3__18ios_base5clearEj
Ltmp448:
	jmp	LBB6_17
Ltmp481:
LBB6_17:                                ## %_ZNSt3__19basic_iosIcNS_11char_traitsIcEEE8setstateEj.exit
	.loc	3 589 0                 ## /Applications/Xcode.app/Contents/Developer/Toolchains/XcodeDefault.xctoolchain/usr/bin/../include/c++/v1/ios:589:0
	jmp	LBB6_18
Ltmp482:
LBB6_18:
	.loc	13 751 0                ## /Applications/Xcode.app/Contents/Developer/Toolchains/XcodeDefault.xctoolchain/usr/bin/../include/c++/v1/ostream:751:0
	jmp	LBB6_25
Ltmp483:
LBB6_19:
Ltmp437:
	.loc	13 761 0                ## /Applications/Xcode.app/Contents/Developer/Toolchains/XcodeDefault.xctoolchain/usr/bin/../include/c++/v1/ostream:761:0
	movl	%edx, %ecx
	movq	%rax, -232(%rbp)
	movl	%ecx, -236(%rbp)
	jmp	LBB6_22
LBB6_20:
Ltmp449:
	.loc	13 761 0                ## /Applications/Xcode.app/Contents/Developer/Toolchains/XcodeDefault.xctoolchain/usr/bin/../include/c++/v1/ostream:761:0
Ltmp484:
	movl	%edx, %ecx
	movq	%rax, -360(%rbp)        ## 8-byte Spill
	movl	%ecx, -364(%rbp)        ## 4-byte Spill
LBB6_21:                                ## %.body
	movl	-364(%rbp), %eax        ## 4-byte Reload
	movq	-360(%rbp), %rcx        ## 8-byte Reload
	leaq	-224(%rbp), %rdi
	movq	%rcx, -232(%rbp)
	movl	%eax, -236(%rbp)
Ltmp485:
	.loc	13 761 0                ## /Applications/Xcode.app/Contents/Developer/Toolchains/XcodeDefault.xctoolchain/usr/bin/../include/c++/v1/ostream:761:0
	callq	__ZNSt3__113basic_ostreamIcNS_11char_traitsIcEEE6sentryD1Ev
LBB6_22:
	.loc	13 754 0                ## /Applications/Xcode.app/Contents/Developer/Toolchains/XcodeDefault.xctoolchain/usr/bin/../include/c++/v1/ostream:754:0
	movq	-232(%rbp), %rdi
	callq	___cxa_begin_catch
	.loc	13 757 0                ## /Applications/Xcode.app/Contents/Developer/Toolchains/XcodeDefault.xctoolchain/usr/bin/../include/c++/v1/ostream:757:0
Ltmp486:
	movq	-192(%rbp), %rdi
	movq	(%rdi), %rcx
	movq	-24(%rcx), %rcx
	addq	%rcx, %rdi
Ltmp450:
	movq	%rax, -384(%rbp)        ## 8-byte Spill
	callq	__ZNSt3__18ios_base33__set_badbit_and_consider_rethrowEv
Ltmp451:
	jmp	LBB6_23
LBB6_23:
	.loc	13 758 0                ## /Applications/Xcode.app/Contents/Developer/Toolchains/XcodeDefault.xctoolchain/usr/bin/../include/c++/v1/ostream:758:0
	callq	___cxa_end_catch
Ltmp487:
LBB6_24:
	.loc	13 760 0                ## /Applications/Xcode.app/Contents/Developer/Toolchains/XcodeDefault.xctoolchain/usr/bin/../include/c++/v1/ostream:760:0
	movq	-192(%rbp), %rax
	addq	$400, %rsp              ## imm = 0x190
	popq	%rbp
	retq
LBB6_25:
	.loc	13 752 0                ## /Applications/Xcode.app/Contents/Developer/Toolchains/XcodeDefault.xctoolchain/usr/bin/../include/c++/v1/ostream:752:0
Ltmp488:
	jmp	LBB6_26
Ltmp489:
LBB6_26:
	leaq	-224(%rbp), %rdi
	.loc	13 754 0                ## /Applications/Xcode.app/Contents/Developer/Toolchains/XcodeDefault.xctoolchain/usr/bin/../include/c++/v1/ostream:754:0
	callq	__ZNSt3__113basic_ostreamIcNS_11char_traitsIcEEE6sentryD1Ev
Ltmp490:
	.loc	13 754 0                ## /Applications/Xcode.app/Contents/Developer/Toolchains/XcodeDefault.xctoolchain/usr/bin/../include/c++/v1/ostream:754:0
	jmp	LBB6_24
LBB6_27:
Ltmp452:
	.loc	13 761 0                ## /Applications/Xcode.app/Contents/Developer/Toolchains/XcodeDefault.xctoolchain/usr/bin/../include/c++/v1/ostream:761:0
Ltmp491:
	movl	%edx, %ecx
	movq	%rax, -232(%rbp)
	movl	%ecx, -236(%rbp)
Ltmp492:
	.loc	13 761 0                ## /Applications/Xcode.app/Contents/Developer/Toolchains/XcodeDefault.xctoolchain/usr/bin/../include/c++/v1/ostream:761:0
Ltmp453:
	callq	___cxa_end_catch
Ltmp454:
	jmp	LBB6_28
LBB6_28:
	jmp	LBB6_29
LBB6_29:
	movq	-232(%rbp), %rdi
	callq	__Unwind_Resume
LBB6_30:
Ltmp455:
	movl	%edx, %ecx
	movq	%rax, %rdi
	movl	%ecx, -388(%rbp)        ## 4-byte Spill
	callq	___clang_call_terminate
Ltmp493:
Lfunc_end6:
	.cfi_endproc
Leh_func_end6:
	.section	__TEXT,__gcc_except_tab
	.align	2
GCC_except_table6:
Lexception6:
	.byte	255                     ## @LPStart Encoding = omit
	.byte	155                     ## @TType Encoding = indirect pcrel sdata4
	.asciz	"\201\201\200\200"      ## @TType base offset
	.byte	3                       ## Call site Encoding = udata4
	.byte	117                     ## Call site table length
Lset23 = Ltmp435-Leh_func_begin6        ## >> Call Site 1 <<
	.long	Lset23
Lset24 = Ltmp436-Ltmp435                ##   Call between Ltmp435 and Ltmp436
	.long	Lset24
Lset25 = Ltmp437-Leh_func_begin6        ##     jumps to Ltmp437
	.long	Lset25
	.byte	5                       ##   On action: 3
Lset26 = Ltmp438-Leh_func_begin6        ## >> Call Site 2 <<
	.long	Lset26
Lset27 = Ltmp439-Ltmp438                ##   Call between Ltmp438 and Ltmp439
	.long	Lset27
Lset28 = Ltmp449-Leh_func_begin6        ##     jumps to Ltmp449
	.long	Lset28
	.byte	5                       ##   On action: 3
Lset29 = Ltmp440-Leh_func_begin6        ## >> Call Site 3 <<
	.long	Lset29
Lset30 = Ltmp443-Ltmp440                ##   Call between Ltmp440 and Ltmp443
	.long	Lset30
Lset31 = Ltmp444-Leh_func_begin6        ##     jumps to Ltmp444
	.long	Lset31
	.byte	3                       ##   On action: 2
Lset32 = Ltmp445-Leh_func_begin6        ## >> Call Site 4 <<
	.long	Lset32
Lset33 = Ltmp448-Ltmp445                ##   Call between Ltmp445 and Ltmp448
	.long	Lset33
Lset34 = Ltmp449-Leh_func_begin6        ##     jumps to Ltmp449
	.long	Lset34
	.byte	5                       ##   On action: 3
Lset35 = Ltmp448-Leh_func_begin6        ## >> Call Site 5 <<
	.long	Lset35
Lset36 = Ltmp450-Ltmp448                ##   Call between Ltmp448 and Ltmp450
	.long	Lset36
	.long	0                       ##     has no landing pad
	.byte	0                       ##   On action: cleanup
Lset37 = Ltmp450-Leh_func_begin6        ## >> Call Site 6 <<
	.long	Lset37
Lset38 = Ltmp451-Ltmp450                ##   Call between Ltmp450 and Ltmp451
	.long	Lset38
Lset39 = Ltmp452-Leh_func_begin6        ##     jumps to Ltmp452
	.long	Lset39
	.byte	0                       ##   On action: cleanup
Lset40 = Ltmp451-Leh_func_begin6        ## >> Call Site 7 <<
	.long	Lset40
Lset41 = Ltmp453-Ltmp451                ##   Call between Ltmp451 and Ltmp453
	.long	Lset41
	.long	0                       ##     has no landing pad
	.byte	0                       ##   On action: cleanup
Lset42 = Ltmp453-Leh_func_begin6        ## >> Call Site 8 <<
	.long	Lset42
Lset43 = Ltmp454-Ltmp453                ##   Call between Ltmp453 and Ltmp454
	.long	Lset43
Lset44 = Ltmp455-Leh_func_begin6        ##     jumps to Ltmp455
	.long	Lset44
	.byte	5                       ##   On action: 3
Lset45 = Ltmp454-Leh_func_begin6        ## >> Call Site 9 <<
	.long	Lset45
Lset46 = Leh_func_end6-Ltmp454          ##   Call between Ltmp454 and Leh_func_end6
	.long	Lset46
	.long	0                       ##     has no landing pad
	.byte	0                       ##   On action: cleanup
	.byte	0                       ## >> Action Record 1 <<
                                        ##   Cleanup
	.byte	0                       ##   No further actions
	.byte	1                       ## >> Action Record 2 <<
                                        ##   Catch TypeInfo 1
	.byte	125                     ##   Continue to action 1
	.byte	1                       ## >> Action Record 3 <<
                                        ##   Catch TypeInfo 1
	.byte	0                       ##   No further actions
                                        ## >> Catch TypeInfos <<
	.long	0                       ## TypeInfo 1
	.align	2

	.section	__TEXT,__textcoal_nt,coalesced,pure_instructions
	.private_extern	__ZNSt3__116__pad_and_outputIcNS_11char_traitsIcEEEENS_19ostreambuf_iteratorIT_T0_EES6_PKS4_S8_S8_RNS_8ios_baseES4_
	.globl	__ZNSt3__116__pad_and_outputIcNS_11char_traitsIcEEEENS_19ostreambuf_iteratorIT_T0_EES6_PKS4_S8_S8_RNS_8ios_baseES4_
	.weak_def_can_be_hidden	__ZNSt3__116__pad_and_outputIcNS_11char_traitsIcEEEENS_19ostreambuf_iteratorIT_T0_EES6_PKS4_S8_S8_RNS_8ios_baseES4_
	.align	4, 0x90
__ZNSt3__116__pad_and_outputIcNS_11char_traitsIcEEEENS_19ostreambuf_iteratorIT_T0_EES6_PKS4_S8_S8_RNS_8ios_baseES4_: ## @_ZNSt3__116__pad_and_outputIcNS_11char_traitsIcEEEENS_19ostreambuf_iteratorIT_T0_EES6_PKS4_S8_S8_RNS_8ios_baseES4_
Lfunc_begin7:
	.loc	17 1479 0               ## /Applications/Xcode.app/Contents/Developer/Toolchains/XcodeDefault.xctoolchain/usr/bin/../include/c++/v1/locale:1479:0
	.cfi_startproc
	.cfi_personality 155, ___gxx_personality_v0
Leh_func_begin7:
	.cfi_lsda 16, Lexception7
## BB#0:
	pushq	%rbp
Ltmp499:
	.cfi_def_cfa_offset 16
Ltmp500:
	.cfi_offset %rbp, -16
	movq	%rsp, %rbp
Ltmp501:
	.cfi_def_cfa_register %rbp
	subq	$480, %rsp              ## imm = 0x1E0
	movb	%r9b, %al
	movq	%rdi, -312(%rbp)
	movq	%rsi, -320(%rbp)
	movq	%rdx, -328(%rbp)
	movq	%rcx, -336(%rbp)
	movq	%r8, -344(%rbp)
	movb	%al, -345(%rbp)
	.loc	17 1480 0 prologue_end  ## /Applications/Xcode.app/Contents/Developer/Toolchains/XcodeDefault.xctoolchain/usr/bin/../include/c++/v1/locale:1480:0
Ltmp502:
	cmpq	$0, -312(%rbp)
	jne	LBB7_2
## BB#1:
	.loc	17 1481 0               ## /Applications/Xcode.app/Contents/Developer/Toolchains/XcodeDefault.xctoolchain/usr/bin/../include/c++/v1/locale:1481:0
	movq	-312(%rbp), %rax
	movq	%rax, -304(%rbp)
	jmp	LBB7_26
Ltmp503:
LBB7_2:
	.loc	17 1482 0               ## /Applications/Xcode.app/Contents/Developer/Toolchains/XcodeDefault.xctoolchain/usr/bin/../include/c++/v1/locale:1482:0
	movq	-336(%rbp), %rax
	movq	-320(%rbp), %rcx
	subq	%rcx, %rax
	movq	%rax, -360(%rbp)
	.loc	17 1483 23              ## /Applications/Xcode.app/Contents/Developer/Toolchains/XcodeDefault.xctoolchain/usr/bin/../include/c++/v1/locale:1483:23
	movq	-344(%rbp), %rax
	movq	%rax, -296(%rbp)
	movq	-296(%rbp), %rax
	.loc	3 499 0                 ## /Applications/Xcode.app/Contents/Developer/Toolchains/XcodeDefault.xctoolchain/usr/bin/../include/c++/v1/ios:499:0
Ltmp504:
	movq	24(%rax), %rax
Ltmp505:
	.loc	17 1483 23              ## /Applications/Xcode.app/Contents/Developer/Toolchains/XcodeDefault.xctoolchain/usr/bin/../include/c++/v1/locale:1483:23
	movq	%rax, -368(%rbp)
	.loc	17 1484 0               ## /Applications/Xcode.app/Contents/Developer/Toolchains/XcodeDefault.xctoolchain/usr/bin/../include/c++/v1/locale:1484:0
Ltmp506:
	movq	-368(%rbp), %rax
	cmpq	-360(%rbp), %rax
	jle	LBB7_4
## BB#3:
	.loc	17 1485 0               ## /Applications/Xcode.app/Contents/Developer/Toolchains/XcodeDefault.xctoolchain/usr/bin/../include/c++/v1/locale:1485:0
	movq	-360(%rbp), %rax
	movq	-368(%rbp), %rcx
	subq	%rax, %rcx
	movq	%rcx, -368(%rbp)
	jmp	LBB7_5
LBB7_4:
	.loc	17 1487 0               ## /Applications/Xcode.app/Contents/Developer/Toolchains/XcodeDefault.xctoolchain/usr/bin/../include/c++/v1/locale:1487:0
	movq	$0, -368(%rbp)
Ltmp507:
LBB7_5:
	.loc	17 1488 0               ## /Applications/Xcode.app/Contents/Developer/Toolchains/XcodeDefault.xctoolchain/usr/bin/../include/c++/v1/locale:1488:0
	movq	-328(%rbp), %rax
	movq	-320(%rbp), %rcx
	subq	%rcx, %rax
	movq	%rax, -376(%rbp)
	.loc	17 1489 0               ## /Applications/Xcode.app/Contents/Developer/Toolchains/XcodeDefault.xctoolchain/usr/bin/../include/c++/v1/locale:1489:0
Ltmp508:
	cmpq	$0, -376(%rbp)
	jle	LBB7_9
## BB#6:
	.loc	17 1491 0               ## /Applications/Xcode.app/Contents/Developer/Toolchains/XcodeDefault.xctoolchain/usr/bin/../include/c++/v1/locale:1491:0
Ltmp509:
	movq	-312(%rbp), %rax
	movq	-320(%rbp), %rcx
	movq	-376(%rbp), %rdx
	movq	%rax, -224(%rbp)
	movq	%rcx, -232(%rbp)
	movq	%rdx, -240(%rbp)
	movq	-224(%rbp), %rax
	.loc	14 360 0                ## /Applications/Xcode.app/Contents/Developer/Toolchains/XcodeDefault.xctoolchain/usr/bin/../include/c++/v1/streambuf:360:0
Ltmp510:
	movq	(%rax), %rcx
	movq	96(%rcx), %rcx
	movq	-232(%rbp), %rsi
	movq	-240(%rbp), %rdx
	movq	%rax, %rdi
	callq	*%rcx
Ltmp511:
	.loc	17 1491 0               ## /Applications/Xcode.app/Contents/Developer/Toolchains/XcodeDefault.xctoolchain/usr/bin/../include/c++/v1/locale:1491:0
	cmpq	-376(%rbp), %rax
	je	LBB7_8
## BB#7:
	.loc	17 1493 0               ## /Applications/Xcode.app/Contents/Developer/Toolchains/XcodeDefault.xctoolchain/usr/bin/../include/c++/v1/locale:1493:0
Ltmp512:
	movq	$0, -312(%rbp)
	.loc	17 1494 0               ## /Applications/Xcode.app/Contents/Developer/Toolchains/XcodeDefault.xctoolchain/usr/bin/../include/c++/v1/locale:1494:0
	movq	-312(%rbp), %rax
	movq	%rax, -304(%rbp)
	jmp	LBB7_26
Ltmp513:
LBB7_8:
	.loc	17 1496 0               ## /Applications/Xcode.app/Contents/Developer/Toolchains/XcodeDefault.xctoolchain/usr/bin/../include/c++/v1/locale:1496:0
	jmp	LBB7_9
Ltmp514:
LBB7_9:
	.loc	17 1497 0               ## /Applications/Xcode.app/Contents/Developer/Toolchains/XcodeDefault.xctoolchain/usr/bin/../include/c++/v1/locale:1497:0
	cmpq	$0, -368(%rbp)
	jle	LBB7_21
## BB#10:
	leaq	-400(%rbp), %rax
Ltmp515:
	##DEBUG_VALUE: __sp <- RAX
	.loc	17 1499 0               ## /Applications/Xcode.app/Contents/Developer/Toolchains/XcodeDefault.xctoolchain/usr/bin/../include/c++/v1/locale:1499:0
	movq	-368(%rbp), %rcx
	movb	-345(%rbp), %dl
	movq	%rax, -200(%rbp)
	movq	%rcx, -208(%rbp)
	movb	%dl, -209(%rbp)
	movq	-200(%rbp), %rax
Ltmp516:
	.loc	6 2102 0                ## /Applications/Xcode.app/Contents/Developer/Toolchains/XcodeDefault.xctoolchain/usr/bin/../include/c++/v1/string:2102:0
	movq	-208(%rbp), %rcx
	movb	-209(%rbp), %dl
	movq	%rax, -176(%rbp)
	movq	%rcx, -184(%rbp)
	movb	%dl, -185(%rbp)
	movq	-176(%rbp), %rax
	movq	%rax, -168(%rbp)
	movq	-168(%rbp), %rcx
	movq	%rcx, -160(%rbp)
	movq	-160(%rbp), %rcx
	movq	%rcx, -152(%rbp)
	movq	-152(%rbp), %rcx
	movq	%rcx, -144(%rbp)
	.loc	6 2098 0                ## /Applications/Xcode.app/Contents/Developer/Toolchains/XcodeDefault.xctoolchain/usr/bin/../include/c++/v1/string:2098:0
Ltmp517:
	movq	-184(%rbp), %rsi
	movq	%rax, %rdi
	movsbl	-185(%rbp), %edx
	callq	__ZNSt3__112basic_stringIcNS_11char_traitsIcEENS_9allocatorIcEEE6__initEmc
	leaq	-400(%rbp), %rax
Ltmp518:
	.loc	17 1500 0               ## /Applications/Xcode.app/Contents/Developer/Toolchains/XcodeDefault.xctoolchain/usr/bin/../include/c++/v1/locale:1500:0
	movq	-312(%rbp), %rcx
	movq	%rax, -136(%rbp)
	movq	-136(%rbp), %rax
	movq	%rax, -128(%rbp)
	movq	-128(%rbp), %rax
	movq	%rax, -120(%rbp)
	movq	-120(%rbp), %rsi
	movq	%rsi, -112(%rbp)
	movq	-112(%rbp), %rsi
	movq	%rsi, -104(%rbp)
	movq	-104(%rbp), %rsi
	.loc	6 1631 0                ## /Applications/Xcode.app/Contents/Developer/Toolchains/XcodeDefault.xctoolchain/usr/bin/../include/c++/v1/string:1631:0
Ltmp519:
	movzbl	(%rsi), %edx
	andl	$1, %edx
Ltmp520:
	.loc	6 1725 0                ## /Applications/Xcode.app/Contents/Developer/Toolchains/XcodeDefault.xctoolchain/usr/bin/../include/c++/v1/string:1725:0
	cmpl	$0, %edx
	movq	%rcx, -424(%rbp)        ## 8-byte Spill
	movq	%rax, -432(%rbp)        ## 8-byte Spill
	je	LBB7_12
## BB#11:
	movq	-432(%rbp), %rax        ## 8-byte Reload
	movq	%rax, -56(%rbp)
	movq	-56(%rbp), %rcx
	movq	%rcx, -48(%rbp)
	movq	-48(%rbp), %rcx
	movq	%rcx, -40(%rbp)
	movq	-40(%rbp), %rcx
	.loc	6 1713 0                ## /Applications/Xcode.app/Contents/Developer/Toolchains/XcodeDefault.xctoolchain/usr/bin/../include/c++/v1/string:1713:0
Ltmp521:
	movq	16(%rcx), %rcx
Ltmp522:
	.loc	6 1725 0                ## /Applications/Xcode.app/Contents/Developer/Toolchains/XcodeDefault.xctoolchain/usr/bin/../include/c++/v1/string:1725:0
	movq	%rcx, -440(%rbp)        ## 8-byte Spill
	jmp	LBB7_13
LBB7_12:
	movq	-432(%rbp), %rax        ## 8-byte Reload
	movq	%rax, -96(%rbp)
	movq	-96(%rbp), %rcx
	movq	%rcx, -88(%rbp)
	movq	-88(%rbp), %rcx
	movq	%rcx, -80(%rbp)
	movq	-80(%rbp), %rcx
	.loc	6 1719 0                ## /Applications/Xcode.app/Contents/Developer/Toolchains/XcodeDefault.xctoolchain/usr/bin/../include/c++/v1/string:1719:0
Ltmp523:
	addq	$1, %rcx
	movq	%rcx, -72(%rbp)
	.loc	7 913 17                ## /Applications/Xcode.app/Contents/Developer/Toolchains/XcodeDefault.xctoolchain/usr/bin/../include/c++/v1/memory:913:17
Ltmp524:
	movq	-72(%rbp), %rcx
	movq	%rcx, -64(%rbp)
	.loc	18 85 0                 ## /Applications/Xcode.app/Contents/Developer/Toolchains/XcodeDefault.xctoolchain/usr/bin/../include/c++/v1/__functional_base:85:0
Ltmp525:
	movq	-64(%rbp), %rcx
	movq	%rcx, -440(%rbp)        ## 8-byte Spill
Ltmp526:
LBB7_13:                                ## %_ZNKSt3__112basic_stringIcNS_11char_traitsIcEENS_9allocatorIcEEE4dataEv.exit
	.loc	6 1725 0                ## /Applications/Xcode.app/Contents/Developer/Toolchains/XcodeDefault.xctoolchain/usr/bin/../include/c++/v1/string:1725:0
	movq	-440(%rbp), %rax        ## 8-byte Reload
	movq	%rax, -32(%rbp)
Ltmp527:
	.loc	17 1500 0               ## /Applications/Xcode.app/Contents/Developer/Toolchains/XcodeDefault.xctoolchain/usr/bin/../include/c++/v1/locale:1500:0
	movq	-368(%rbp), %rcx
	movq	-424(%rbp), %rdx        ## 8-byte Reload
	movq	%rdx, -8(%rbp)
	movq	%rax, -16(%rbp)
	movq	%rcx, -24(%rbp)
	movq	-8(%rbp), %rax
	.loc	14 360 0                ## /Applications/Xcode.app/Contents/Developer/Toolchains/XcodeDefault.xctoolchain/usr/bin/../include/c++/v1/streambuf:360:0
Ltmp528:
	movq	(%rax), %rsi
	movq	96(%rsi), %rsi
	movq	-16(%rbp), %rdi
Ltmp494:
	movq	%rdi, -448(%rbp)        ## 8-byte Spill
	movq	%rax, %rdi
	movq	-448(%rbp), %rax        ## 8-byte Reload
	movq	%rsi, -456(%rbp)        ## 8-byte Spill
	movq	%rax, %rsi
	movq	%rcx, %rdx
	movq	-456(%rbp), %rcx        ## 8-byte Reload
	callq	*%rcx
Ltmp495:
	movq	%rax, -464(%rbp)        ## 8-byte Spill
	jmp	LBB7_14
LBB7_14:                                ## %_ZNSt3__115basic_streambufIcNS_11char_traitsIcEEE5sputnEPKcl.exit
	jmp	LBB7_15
Ltmp529:
LBB7_15:
	.loc	17 1500 0               ## /Applications/Xcode.app/Contents/Developer/Toolchains/XcodeDefault.xctoolchain/usr/bin/../include/c++/v1/locale:1500:0
	movq	-464(%rbp), %rax        ## 8-byte Reload
	cmpq	-368(%rbp), %rax
	je	LBB7_18
## BB#16:
	.loc	17 1502 0               ## /Applications/Xcode.app/Contents/Developer/Toolchains/XcodeDefault.xctoolchain/usr/bin/../include/c++/v1/locale:1502:0
Ltmp530:
	movq	$0, -312(%rbp)
	.loc	17 1503 0               ## /Applications/Xcode.app/Contents/Developer/Toolchains/XcodeDefault.xctoolchain/usr/bin/../include/c++/v1/locale:1503:0
	movq	-312(%rbp), %rax
	movq	%rax, -304(%rbp)
	movl	$1, -416(%rbp)
	jmp	LBB7_19
Ltmp531:
LBB7_17:
Ltmp496:
	leaq	-400(%rbp), %rdi
	.loc	17 1517 0               ## /Applications/Xcode.app/Contents/Developer/Toolchains/XcodeDefault.xctoolchain/usr/bin/../include/c++/v1/locale:1517:0
	movl	%edx, %ecx
	movq	%rax, -408(%rbp)
	movl	%ecx, -412(%rbp)
Ltmp532:
	.loc	17 1517 0               ## /Applications/Xcode.app/Contents/Developer/Toolchains/XcodeDefault.xctoolchain/usr/bin/../include/c++/v1/locale:1517:0
	callq	__ZNSt3__112basic_stringIcNS_11char_traitsIcEENS_9allocatorIcEEED1Ev
	jmp	LBB7_27
LBB7_18:
	.loc	17 1505 0               ## /Applications/Xcode.app/Contents/Developer/Toolchains/XcodeDefault.xctoolchain/usr/bin/../include/c++/v1/locale:1505:0
Ltmp533:
	movl	$0, -416(%rbp)
LBB7_19:
	leaq	-400(%rbp), %rdi
	callq	__ZNSt3__112basic_stringIcNS_11char_traitsIcEENS_9allocatorIcEEED1Ev
	movl	-416(%rbp), %eax
	movl	%eax, %ecx
	subl	$1, %ecx
	movl	%eax, -468(%rbp)        ## 4-byte Spill
	movl	%ecx, -472(%rbp)        ## 4-byte Spill
	je	LBB7_26
	jmp	LBB7_29
Ltmp534:
LBB7_29:
	movl	-468(%rbp), %eax        ## 4-byte Reload
	testl	%eax, %eax
	jne	LBB7_28
	jmp	LBB7_20
LBB7_20:
	.loc	17 1505 0               ## /Applications/Xcode.app/Contents/Developer/Toolchains/XcodeDefault.xctoolchain/usr/bin/../include/c++/v1/locale:1505:0
	jmp	LBB7_21
Ltmp535:
LBB7_21:
	.loc	17 1506 0               ## /Applications/Xcode.app/Contents/Developer/Toolchains/XcodeDefault.xctoolchain/usr/bin/../include/c++/v1/locale:1506:0
	movq	-336(%rbp), %rax
	movq	-328(%rbp), %rcx
	subq	%rcx, %rax
	movq	%rax, -376(%rbp)
	.loc	17 1507 0               ## /Applications/Xcode.app/Contents/Developer/Toolchains/XcodeDefault.xctoolchain/usr/bin/../include/c++/v1/locale:1507:0
Ltmp536:
	cmpq	$0, -376(%rbp)
	jle	LBB7_25
## BB#22:
	.loc	17 1509 0               ## /Applications/Xcode.app/Contents/Developer/Toolchains/XcodeDefault.xctoolchain/usr/bin/../include/c++/v1/locale:1509:0
Ltmp537:
	movq	-312(%rbp), %rax
	movq	-328(%rbp), %rcx
	movq	-376(%rbp), %rdx
	movq	%rax, -248(%rbp)
	movq	%rcx, -256(%rbp)
	movq	%rdx, -264(%rbp)
	movq	-248(%rbp), %rax
	.loc	14 360 0                ## /Applications/Xcode.app/Contents/Developer/Toolchains/XcodeDefault.xctoolchain/usr/bin/../include/c++/v1/streambuf:360:0
Ltmp538:
	movq	(%rax), %rcx
	movq	96(%rcx), %rcx
	movq	-256(%rbp), %rsi
	movq	-264(%rbp), %rdx
	movq	%rax, %rdi
	callq	*%rcx
Ltmp539:
	.loc	17 1509 0               ## /Applications/Xcode.app/Contents/Developer/Toolchains/XcodeDefault.xctoolchain/usr/bin/../include/c++/v1/locale:1509:0
	cmpq	-376(%rbp), %rax
	je	LBB7_24
## BB#23:
	.loc	17 1511 0               ## /Applications/Xcode.app/Contents/Developer/Toolchains/XcodeDefault.xctoolchain/usr/bin/../include/c++/v1/locale:1511:0
Ltmp540:
	movq	$0, -312(%rbp)
	.loc	17 1512 0               ## /Applications/Xcode.app/Contents/Developer/Toolchains/XcodeDefault.xctoolchain/usr/bin/../include/c++/v1/locale:1512:0
	movq	-312(%rbp), %rax
	movq	%rax, -304(%rbp)
	jmp	LBB7_26
Ltmp541:
LBB7_24:
	.loc	17 1514 0               ## /Applications/Xcode.app/Contents/Developer/Toolchains/XcodeDefault.xctoolchain/usr/bin/../include/c++/v1/locale:1514:0
	jmp	LBB7_25
Ltmp542:
LBB7_25:
	.loc	17 1515 0               ## /Applications/Xcode.app/Contents/Developer/Toolchains/XcodeDefault.xctoolchain/usr/bin/../include/c++/v1/locale:1515:0
	movq	-344(%rbp), %rax
	movq	%rax, -272(%rbp)
	movq	$0, -280(%rbp)
	movq	-272(%rbp), %rax
	.loc	3 506 0                 ## /Applications/Xcode.app/Contents/Developer/Toolchains/XcodeDefault.xctoolchain/usr/bin/../include/c++/v1/ios:506:0
Ltmp543:
	movq	24(%rax), %rcx
	movq	%rcx, -288(%rbp)
	.loc	3 507 0                 ## /Applications/Xcode.app/Contents/Developer/Toolchains/XcodeDefault.xctoolchain/usr/bin/../include/c++/v1/ios:507:0
	movq	-280(%rbp), %rcx
	movq	%rcx, 24(%rax)
Ltmp544:
	.loc	17 1516 0               ## /Applications/Xcode.app/Contents/Developer/Toolchains/XcodeDefault.xctoolchain/usr/bin/../include/c++/v1/locale:1516:0
	movq	-312(%rbp), %rax
	movq	%rax, -304(%rbp)
LBB7_26:
	.loc	17 1517 0               ## /Applications/Xcode.app/Contents/Developer/Toolchains/XcodeDefault.xctoolchain/usr/bin/../include/c++/v1/locale:1517:0
	movq	-304(%rbp), %rax
	addq	$480, %rsp              ## imm = 0x1E0
	popq	%rbp
	retq
LBB7_27:
	.loc	17 1517 0               ## /Applications/Xcode.app/Contents/Developer/Toolchains/XcodeDefault.xctoolchain/usr/bin/../include/c++/v1/locale:1517:0
Ltmp545:
	movq	-408(%rbp), %rdi
	callq	__Unwind_Resume
Ltmp546:
LBB7_28:
Lfunc_end7:
	.cfi_endproc
Leh_func_end7:
	.section	__TEXT,__gcc_except_tab
	.align	2
GCC_except_table7:
Lexception7:
	.byte	255                     ## @LPStart Encoding = omit
	.byte	155                     ## @TType Encoding = indirect pcrel sdata4
	.byte	41                      ## @TType base offset
	.byte	3                       ## Call site Encoding = udata4
	.byte	39                      ## Call site table length
Lset47 = Leh_func_begin7-Leh_func_begin7 ## >> Call Site 1 <<
	.long	Lset47
Lset48 = Ltmp494-Leh_func_begin7        ##   Call between Leh_func_begin7 and Ltmp494
	.long	Lset48
	.long	0                       ##     has no landing pad
	.byte	0                       ##   On action: cleanup
Lset49 = Ltmp494-Leh_func_begin7        ## >> Call Site 2 <<
	.long	Lset49
Lset50 = Ltmp495-Ltmp494                ##   Call between Ltmp494 and Ltmp495
	.long	Lset50
Lset51 = Ltmp496-Leh_func_begin7        ##     jumps to Ltmp496
	.long	Lset51
	.byte	0                       ##   On action: cleanup
Lset52 = Ltmp495-Leh_func_begin7        ## >> Call Site 3 <<
	.long	Lset52
Lset53 = Leh_func_end7-Ltmp495          ##   Call between Ltmp495 and Leh_func_end7
	.long	Lset53
	.long	0                       ##     has no landing pad
	.byte	0                       ##   On action: cleanup
	.align	2

	.section	__TEXT,__textcoal_nt,coalesced,pure_instructions
	.private_extern	___clang_call_terminate
	.globl	___clang_call_terminate
	.weak_def_can_be_hidden	___clang_call_terminate
	.align	4, 0x90
___clang_call_terminate:                ## @__clang_call_terminate
	.cfi_startproc
## BB#0:
	pushq	%rbp
Ltmp549:
	.cfi_def_cfa_offset 16
Ltmp550:
	.cfi_offset %rbp, -16
	movq	%rsp, %rbp
Ltmp551:
	.cfi_def_cfa_register %rbp
	subq	$16, %rsp
	callq	___cxa_begin_catch
	movq	%rax, -8(%rbp)          ## 8-byte Spill
	callq	__ZSt9terminatev
	.cfi_endproc

	.globl	__ZNSt3__16vectorIeNS_9allocatorIeEEED2Ev
	.weak_def_can_be_hidden	__ZNSt3__16vectorIeNS_9allocatorIeEEED2Ev
	.align	4, 0x90
__ZNSt3__16vectorIeNS_9allocatorIeEEED2Ev: ## @_ZNSt3__16vectorIeNS_9allocatorIeEEED2Ev
Lfunc_begin9:
	.loc	20 481 0                ## /Applications/Xcode.app/Contents/Developer/Toolchains/XcodeDefault.xctoolchain/usr/bin/../include/c++/v1/vector:481:0
	.cfi_startproc
## BB#0:
	pushq	%rbp
Ltmp554:
	.cfi_def_cfa_offset 16
Ltmp555:
	.cfi_offset %rbp, -16
	movq	%rsp, %rbp
Ltmp556:
	.cfi_def_cfa_register %rbp
	subq	$16, %rsp
	movq	%rdi, -8(%rbp)
	movq	-8(%rbp), %rdi
	.loc	20 481 0 prologue_end   ## /Applications/Xcode.app/Contents/Developer/Toolchains/XcodeDefault.xctoolchain/usr/bin/../include/c++/v1/vector:481:0
Ltmp557:
	callq	__ZNSt3__113__vector_baseIeNS_9allocatorIeEEED2Ev
Ltmp558:
	.loc	20 481 0                ## /Applications/Xcode.app/Contents/Developer/Toolchains/XcodeDefault.xctoolchain/usr/bin/../include/c++/v1/vector:481:0
	addq	$16, %rsp
	popq	%rbp
	retq
Ltmp559:
Lfunc_end9:
	.cfi_endproc

	.globl	__ZNSt3__113__vector_baseIeNS_9allocatorIeEEED2Ev
	.weak_def_can_be_hidden	__ZNSt3__113__vector_baseIeNS_9allocatorIeEEED2Ev
	.align	4, 0x90
__ZNSt3__113__vector_baseIeNS_9allocatorIeEEED2Ev: ## @_ZNSt3__113__vector_baseIeNS_9allocatorIeEEED2Ev
Lfunc_begin10:
	.loc	20 472 0                ## /Applications/Xcode.app/Contents/Developer/Toolchains/XcodeDefault.xctoolchain/usr/bin/../include/c++/v1/vector:472:0
	.cfi_startproc
## BB#0:
	pushq	%rbp
Ltmp562:
	.cfi_def_cfa_offset 16
Ltmp563:
	.cfi_offset %rbp, -16
	movq	%rsp, %rbp
Ltmp564:
	.cfi_def_cfa_register %rbp
	subq	$256, %rsp              ## imm = 0x100
	movq	%rdi, -240(%rbp)
	movq	-240(%rbp), %rdi
	.loc	20 473 0 prologue_end   ## /Applications/Xcode.app/Contents/Developer/Toolchains/XcodeDefault.xctoolchain/usr/bin/../include/c++/v1/vector:473:0
Ltmp565:
	cmpq	$0, (%rdi)
	movq	%rdi, -248(%rbp)        ## 8-byte Spill
	je	LBB10_5
## BB#1:
	movq	-248(%rbp), %rax        ## 8-byte Reload
	movq	%rax, -232(%rbp)
	movq	-232(%rbp), %rcx
	.loc	20 372 0                ## /Applications/Xcode.app/Contents/Developer/Toolchains/XcodeDefault.xctoolchain/usr/bin/../include/c++/v1/vector:372:0
Ltmp566:
	movq	(%rcx), %rdx
	movq	%rcx, -216(%rbp)
	movq	%rdx, -224(%rbp)
	movq	-216(%rbp), %rcx
	movq	%rcx, -256(%rbp)        ## 8-byte Spill
LBB10_2:                                ## =>This Inner Loop Header: Depth=1
	.loc	20 447 0                ## /Applications/Xcode.app/Contents/Developer/Toolchains/XcodeDefault.xctoolchain/usr/bin/../include/c++/v1/vector:447:0
Ltmp567:
	movq	-224(%rbp), %rax
	movq	-256(%rbp), %rcx        ## 8-byte Reload
	cmpq	8(%rcx), %rax
	je	LBB10_4
## BB#3:                                ##   in Loop: Header=BB10_2 Depth=1
	movq	-256(%rbp), %rax        ## 8-byte Reload
	movq	%rax, -208(%rbp)
	movq	-208(%rbp), %rcx
	.loc	20 354 0                ## /Applications/Xcode.app/Contents/Developer/Toolchains/XcodeDefault.xctoolchain/usr/bin/../include/c++/v1/vector:354:0
Ltmp568:
	addq	$16, %rcx
	movq	%rcx, -200(%rbp)
	movq	-200(%rbp), %rcx
	movq	%rcx, -192(%rbp)
	movq	-192(%rbp), %rcx
Ltmp569:
	.loc	20 448 44               ## /Applications/Xcode.app/Contents/Developer/Toolchains/XcodeDefault.xctoolchain/usr/bin/../include/c++/v1/vector:448:44
	movq	8(%rax), %rdx
	addq	$-16, %rdx
	movq	%rdx, 8(%rax)
	movq	%rdx, -184(%rbp)
	.loc	7 1039 0                ## /Applications/Xcode.app/Contents/Developer/Toolchains/XcodeDefault.xctoolchain/usr/bin/../include/c++/v1/memory:1039:0
Ltmp570:
	movq	-184(%rbp), %rdx
	movq	%rcx, -152(%rbp)
	movq	%rdx, -160(%rbp)
Ltmp571:
	.loc	7 1483 0                ## /Applications/Xcode.app/Contents/Developer/Toolchains/XcodeDefault.xctoolchain/usr/bin/../include/c++/v1/memory:1483:0
	movq	-152(%rbp), %rcx
	movq	-160(%rbp), %rdx
	movq	%rcx, -136(%rbp)
	movq	%rdx, -144(%rbp)
	.loc	7 1580 0                ## /Applications/Xcode.app/Contents/Developer/Toolchains/XcodeDefault.xctoolchain/usr/bin/../include/c++/v1/memory:1580:0
Ltmp572:
	movq	-136(%rbp), %rcx
	movq	-144(%rbp), %rdx
	movq	%rcx, -112(%rbp)
	movq	%rdx, -120(%rbp)
Ltmp573:
	.loc	20 448 0                ## /Applications/Xcode.app/Contents/Developer/Toolchains/XcodeDefault.xctoolchain/usr/bin/../include/c++/v1/vector:448:0
	jmp	LBB10_2
Ltmp574:
LBB10_4:                                ## %_ZNSt3__113__vector_baseIeNS_9allocatorIeEEE5clearEv.exit
	movq	-248(%rbp), %rax        ## 8-byte Reload
	movq	%rax, -56(%rbp)
	movq	-56(%rbp), %rcx
	.loc	20 354 0                ## /Applications/Xcode.app/Contents/Developer/Toolchains/XcodeDefault.xctoolchain/usr/bin/../include/c++/v1/vector:354:0
Ltmp575:
	addq	$16, %rcx
	movq	%rcx, -48(%rbp)
	movq	-48(%rbp), %rcx
	movq	%rcx, -40(%rbp)
	movq	-40(%rbp), %rcx
Ltmp576:
	.loc	20 476 0                ## /Applications/Xcode.app/Contents/Developer/Toolchains/XcodeDefault.xctoolchain/usr/bin/../include/c++/v1/vector:476:0
	movq	(%rax), %rdx
	movq	%rax, -32(%rbp)
	movq	-32(%rbp), %rsi
	movq	%rsi, -24(%rbp)
	movq	-24(%rbp), %rdi
	.loc	20 363 0                ## /Applications/Xcode.app/Contents/Developer/Toolchains/XcodeDefault.xctoolchain/usr/bin/../include/c++/v1/vector:363:0
Ltmp577:
	addq	$16, %rdi
	movq	%rdi, -16(%rbp)
	movq	-16(%rbp), %rdi
	movq	%rdi, -8(%rbp)
	movq	-8(%rbp), %rdi
Ltmp578:
	.loc	20 375 0                ## /Applications/Xcode.app/Contents/Developer/Toolchains/XcodeDefault.xctoolchain/usr/bin/../include/c++/v1/vector:375:0
	movq	(%rdi), %rdi
	movq	(%rsi), %rsi
	subq	%rsi, %rdi
	sarq	$4, %rdi
	movq	%rcx, -88(%rbp)
	movq	%rdx, -96(%rbp)
	movq	%rdi, -104(%rbp)
	.loc	7 1443 0                ## /Applications/Xcode.app/Contents/Developer/Toolchains/XcodeDefault.xctoolchain/usr/bin/../include/c++/v1/memory:1443:0
	movq	-88(%rbp), %rcx
	movq	-96(%rbp), %rdx
	movq	-104(%rbp), %rsi
	movq	%rcx, -64(%rbp)
	movq	%rdx, -72(%rbp)
	movq	%rsi, -80(%rbp)
	.loc	7 1632 0                ## /Applications/Xcode.app/Contents/Developer/Toolchains/XcodeDefault.xctoolchain/usr/bin/../include/c++/v1/memory:1632:0
Ltmp579:
	movq	-72(%rbp), %rcx
	movq	%rcx, %rdi
	callq	__ZdlPv
Ltmp580:
LBB10_5:
	.loc	20 478 0                ## /Applications/Xcode.app/Contents/Developer/Toolchains/XcodeDefault.xctoolchain/usr/bin/../include/c++/v1/vector:478:0
	addq	$256, %rsp              ## imm = 0x100
	popq	%rbp
	retq
Ltmp581:
Lfunc_end10:
	.cfi_endproc

	.globl	__ZNSt3__16vectorINS0_IeNS_9allocatorIeEEEENS1_IS3_EEED2Ev
	.weak_def_can_be_hidden	__ZNSt3__16vectorINS0_IeNS_9allocatorIeEEEENS1_IS3_EEED2Ev
	.align	4, 0x90
__ZNSt3__16vectorINS0_IeNS_9allocatorIeEEEENS1_IS3_EEED2Ev: ## @_ZNSt3__16vectorINS0_IeNS_9allocatorIeEEEENS1_IS3_EEED2Ev
Lfunc_begin11:
	.loc	20 481 0                ## /Applications/Xcode.app/Contents/Developer/Toolchains/XcodeDefault.xctoolchain/usr/bin/../include/c++/v1/vector:481:0
	.cfi_startproc
## BB#0:
	pushq	%rbp
Ltmp584:
	.cfi_def_cfa_offset 16
Ltmp585:
	.cfi_offset %rbp, -16
	movq	%rsp, %rbp
Ltmp586:
	.cfi_def_cfa_register %rbp
	subq	$16, %rsp
	movq	%rdi, -8(%rbp)
	movq	-8(%rbp), %rdi
	.loc	20 481 0 prologue_end   ## /Applications/Xcode.app/Contents/Developer/Toolchains/XcodeDefault.xctoolchain/usr/bin/../include/c++/v1/vector:481:0
Ltmp587:
	callq	__ZNSt3__113__vector_baseINS_6vectorIeNS_9allocatorIeEEEENS2_IS4_EEED2Ev
Ltmp588:
	.loc	20 481 0                ## /Applications/Xcode.app/Contents/Developer/Toolchains/XcodeDefault.xctoolchain/usr/bin/../include/c++/v1/vector:481:0
	addq	$16, %rsp
	popq	%rbp
	retq
Ltmp589:
Lfunc_end11:
	.cfi_endproc

	.globl	__ZNSt3__113__vector_baseINS_6vectorIeNS_9allocatorIeEEEENS2_IS4_EEED2Ev
	.weak_def_can_be_hidden	__ZNSt3__113__vector_baseINS_6vectorIeNS_9allocatorIeEEEENS2_IS4_EEED2Ev
	.align	4, 0x90
__ZNSt3__113__vector_baseINS_6vectorIeNS_9allocatorIeEEEENS2_IS4_EEED2Ev: ## @_ZNSt3__113__vector_baseINS_6vectorIeNS_9allocatorIeEEEENS2_IS4_EEED2Ev
Lfunc_begin12:
	.loc	20 472 0                ## /Applications/Xcode.app/Contents/Developer/Toolchains/XcodeDefault.xctoolchain/usr/bin/../include/c++/v1/vector:472:0
	.cfi_startproc
## BB#0:
	pushq	%rbp
Ltmp592:
	.cfi_def_cfa_offset 16
Ltmp593:
	.cfi_offset %rbp, -16
	movq	%rsp, %rbp
Ltmp594:
	.cfi_def_cfa_register %rbp
	subq	$272, %rsp              ## imm = 0x110
	movq	%rdi, -240(%rbp)
	movq	-240(%rbp), %rdi
	.loc	20 473 0 prologue_end   ## /Applications/Xcode.app/Contents/Developer/Toolchains/XcodeDefault.xctoolchain/usr/bin/../include/c++/v1/vector:473:0
Ltmp595:
	cmpq	$0, (%rdi)
	movq	%rdi, -248(%rbp)        ## 8-byte Spill
	je	LBB12_5
## BB#1:
	movq	-248(%rbp), %rax        ## 8-byte Reload
	movq	%rax, -232(%rbp)
	movq	-232(%rbp), %rcx
	.loc	20 372 0                ## /Applications/Xcode.app/Contents/Developer/Toolchains/XcodeDefault.xctoolchain/usr/bin/../include/c++/v1/vector:372:0
Ltmp596:
	movq	(%rcx), %rdx
	movq	%rcx, -216(%rbp)
	movq	%rdx, -224(%rbp)
	movq	-216(%rbp), %rcx
	movq	%rcx, -256(%rbp)        ## 8-byte Spill
LBB12_2:                                ## =>This Inner Loop Header: Depth=1
	.loc	20 447 0                ## /Applications/Xcode.app/Contents/Developer/Toolchains/XcodeDefault.xctoolchain/usr/bin/../include/c++/v1/vector:447:0
Ltmp597:
	movq	-224(%rbp), %rax
	movq	-256(%rbp), %rcx        ## 8-byte Reload
	cmpq	8(%rcx), %rax
	je	LBB12_4
## BB#3:                                ##   in Loop: Header=BB12_2 Depth=1
	movq	-256(%rbp), %rax        ## 8-byte Reload
	movq	%rax, -208(%rbp)
	movq	-208(%rbp), %rcx
	.loc	20 354 0                ## /Applications/Xcode.app/Contents/Developer/Toolchains/XcodeDefault.xctoolchain/usr/bin/../include/c++/v1/vector:354:0
Ltmp598:
	addq	$16, %rcx
	movq	%rcx, -200(%rbp)
	movq	-200(%rbp), %rcx
	movq	%rcx, -192(%rbp)
	movq	-192(%rbp), %rcx
Ltmp599:
	.loc	20 448 44               ## /Applications/Xcode.app/Contents/Developer/Toolchains/XcodeDefault.xctoolchain/usr/bin/../include/c++/v1/vector:448:44
	movq	8(%rax), %rdx
	addq	$-24, %rdx
	movq	%rdx, 8(%rax)
	movq	%rdx, -184(%rbp)
	.loc	7 1039 0                ## /Applications/Xcode.app/Contents/Developer/Toolchains/XcodeDefault.xctoolchain/usr/bin/../include/c++/v1/memory:1039:0
Ltmp600:
	movq	-184(%rbp), %rdx
	movq	%rcx, -152(%rbp)
	movq	%rdx, -160(%rbp)
Ltmp601:
	.loc	7 1483 0                ## /Applications/Xcode.app/Contents/Developer/Toolchains/XcodeDefault.xctoolchain/usr/bin/../include/c++/v1/memory:1483:0
	movq	-152(%rbp), %rcx
	movq	-160(%rbp), %rdx
	movq	%rcx, -136(%rbp)
	movq	%rdx, -144(%rbp)
	.loc	7 1580 0                ## /Applications/Xcode.app/Contents/Developer/Toolchains/XcodeDefault.xctoolchain/usr/bin/../include/c++/v1/memory:1580:0
Ltmp602:
	movq	-136(%rbp), %rcx
	movq	-144(%rbp), %rdx
	movq	%rcx, -112(%rbp)
	movq	%rdx, -120(%rbp)
	.loc	7 1696 0                ## /Applications/Xcode.app/Contents/Developer/Toolchains/XcodeDefault.xctoolchain/usr/bin/../include/c++/v1/memory:1696:0
Ltmp603:
	movq	-120(%rbp), %rdi
	callq	__ZNSt3__16vectorIeNS_9allocatorIeEEED1Ev
Ltmp604:
	.loc	20 448 0                ## /Applications/Xcode.app/Contents/Developer/Toolchains/XcodeDefault.xctoolchain/usr/bin/../include/c++/v1/vector:448:0
	jmp	LBB12_2
Ltmp605:
LBB12_4:                                ## %_ZNSt3__113__vector_baseINS_6vectorIeNS_9allocatorIeEEEENS2_IS4_EEE5clearEv.exit
	movabsq	$24, %rax
	movq	-248(%rbp), %rcx        ## 8-byte Reload
	movq	%rcx, -104(%rbp)
	movq	-104(%rbp), %rdx
	.loc	20 354 0                ## /Applications/Xcode.app/Contents/Developer/Toolchains/XcodeDefault.xctoolchain/usr/bin/../include/c++/v1/vector:354:0
Ltmp606:
	addq	$16, %rdx
	movq	%rdx, -96(%rbp)
	movq	-96(%rbp), %rdx
	movq	%rdx, -88(%rbp)
	movq	-88(%rbp), %rdx
Ltmp607:
	.loc	20 476 0                ## /Applications/Xcode.app/Contents/Developer/Toolchains/XcodeDefault.xctoolchain/usr/bin/../include/c++/v1/vector:476:0
	movq	(%rcx), %rsi
	movq	%rcx, -32(%rbp)
	movq	-32(%rbp), %rdi
	movq	%rdi, -24(%rbp)
	movq	-24(%rbp), %r8
	.loc	20 363 0                ## /Applications/Xcode.app/Contents/Developer/Toolchains/XcodeDefault.xctoolchain/usr/bin/../include/c++/v1/vector:363:0
Ltmp608:
	addq	$16, %r8
	movq	%r8, -16(%rbp)
	movq	-16(%rbp), %r8
	movq	%r8, -8(%rbp)
	movq	-8(%rbp), %r8
Ltmp609:
	.loc	20 375 0                ## /Applications/Xcode.app/Contents/Developer/Toolchains/XcodeDefault.xctoolchain/usr/bin/../include/c++/v1/vector:375:0
	movq	(%r8), %r8
	movq	(%rdi), %rdi
	subq	%rdi, %r8
	movq	%rax, -264(%rbp)        ## 8-byte Spill
	movq	%r8, %rax
	movq	%rdx, -272(%rbp)        ## 8-byte Spill
	cqto
	movq	-264(%rbp), %rdi        ## 8-byte Reload
	idivq	%rdi
	movq	-272(%rbp), %rdx        ## 8-byte Reload
	movq	%rdx, -64(%rbp)
	movq	%rsi, -72(%rbp)
	movq	%rax, -80(%rbp)
	.loc	7 1443 0                ## /Applications/Xcode.app/Contents/Developer/Toolchains/XcodeDefault.xctoolchain/usr/bin/../include/c++/v1/memory:1443:0
	movq	-64(%rbp), %rax
	movq	-72(%rbp), %rsi
	movq	-80(%rbp), %r8
	movq	%rax, -40(%rbp)
	movq	%rsi, -48(%rbp)
	movq	%r8, -56(%rbp)
	.loc	7 1632 0                ## /Applications/Xcode.app/Contents/Developer/Toolchains/XcodeDefault.xctoolchain/usr/bin/../include/c++/v1/memory:1632:0
Ltmp610:
	movq	-48(%rbp), %rax
	movq	%rax, %rdi
	callq	__ZdlPv
Ltmp611:
LBB12_5:
	.loc	20 478 0                ## /Applications/Xcode.app/Contents/Developer/Toolchains/XcodeDefault.xctoolchain/usr/bin/../include/c++/v1/vector:478:0
	addq	$272, %rsp              ## imm = 0x110
	popq	%rbp
	retq
Ltmp612:
Lfunc_end12:
	.cfi_endproc

	.section	__TEXT,__cstring,cstring_literals
L_.str:                                 ## @.str
	.asciz	"Mean overhead of reading time, over "

L_.str1:                                ## @.str1
	.asciz	" iterations: "

L_.str2:                                ## @.str2
	.asciz	"ns"

L_.str3:                                ## @.str3
	.asciz	"Std. dev of overhead of reading time, over "

L_.str4:                                ## @.str4
	.asciz	"Overhead of a loop, over "

L_.str5:                                ## @.str5
	.asciz	"Overhead for procedure calls, over "

L_.str6:                                ## @.str6
	.asciz	"Procedure with "

L_.str7:                                ## @.str7
	.asciz	" arguments: "

L_.str8:                                ## @.str8
	.asciz	" ns"

L_.str9:                                ## @.str9
	.asciz	"Overhead for system call stat(), over "

L_.str10:                               ## @.str10
	.asciz	" iteration: "

L_.str11:                               ## @.str11
	.asciz	"Overhead for creating and running a single process is: "

L_.str12:                               ## @.str12
	.asciz	" us"

L_.str13:                               ## @.str13
	.asciz	"Overhead for creating and running a single thread is: "

L_.str14:                               ## @.str14
	.asciz	"Overhead for proc context switch is: "

L_.str15:                               ## @.str15
	.asciz	"Overhead for thread context switch is: "

L_.str16:                               ## @.str16
	.asciz	"DRAM write bandwidth: "

L_.str17:                               ## @.str17
	.asciz	" GiB/s"

L_.str18:                               ## @.str18
	.asciz	"DRAM read bandwidth: "

L_.str19:                               ## @.str19
	.asciz	"Average Page Fault Service Time: "

L_.str20:                               ## @.str20
	.asciz	"g++ loopTCPServer.cpp -o server ; ./server &"

L_.str21:                               ## @.str21
	.asciz	"g++ loopTCPClient.cpp -o client ; ./client 0"

L_.str22:                               ## @.str22
	.asciz	"r"

L_.str23:                               ## @.str23
	.asciz	"ps -ax | grep -i ./server| awk 'NR == 1 {print $1}' | tr -d '\n' | xargs -0 kill"

	.section	__TEXT,__text,regular,pure_instructions
Ldebug_end0:
	.section	__TEXT,__textcoal_nt,coalesced,pure_instructions
Ldebug_end1: